   1              		.syntax unified
   2              		.cpu cortex-m3
   3              		.fpu softvfp
   4              		.eabi_attribute 20, 1
   5              		.eabi_attribute 21, 1
   6              		.eabi_attribute 23, 3
   7              		.eabi_attribute 24, 1
   8              		.eabi_attribute 25, 1
   9              		.eabi_attribute 26, 1
  10              		.eabi_attribute 30, 1
  11              		.eabi_attribute 34, 1
  12              		.eabi_attribute 18, 4
  13              		.thumb
  14              		.file	"_initialize_hardware.c"
  15              		.text
  16              	.Ltext0:
  17              		.cfi_sections	.debug_frame
  18              		.section	.text.__initialize_hardware_early,"ax",%progbits
  19              		.align	2
  20              		.weak	__initialize_hardware_early
  21              		.thumb
  22              		.thumb_func
  23              		.type	__initialize_hardware_early, %function
  24              	__initialize_hardware_early:
  25              	.LFB56:
  26              		.file 1 "../system/src/cortexm/_initialize_hardware.c"
  27              		.loc 1 36 0
  28              		.cfi_startproc
  29              		@ args = 0, pretend = 0, frame = 0
  30              		@ frame_needed = 0, uses_anonymous_args = 0
  31 0000 08B5     		push	{r3, lr}
  32              		.cfi_def_cfa_offset 8
  33              		.cfi_offset 3, -8
  34              		.cfi_offset 14, -4
  35              		.loc 1 38 0
  36 0002 FFF7FEFF 		bl	SystemInit
  37              	.LVL0:
  38              		.loc 1 42 0
  39 0006 024B     		ldr	r3, .L3
  40 0008 024A     		ldr	r2, .L3+4
  41 000a 9A60     		str	r2, [r3, #8]
  42 000c 08BD     		pop	{r3, pc}
  43              	.L4:
  44 000e 00BF     		.align	2
  45              	.L3:
  46 0010 00ED00E0 		.word	-536810240
  47 0014 00000000 		.word	__vectors_start
  48              		.cfi_endproc
  49              	.LFE56:
  50              		.size	__initialize_hardware_early, .-__initialize_hardware_early
  51              		.section	.text.__initialize_hardware,"ax",%progbits
  52              		.align	2
  53              		.weak	__initialize_hardware
  54              		.thumb
  55              		.thumb_func
  56              		.type	__initialize_hardware, %function
  57              	__initialize_hardware:
  58              	.LFB57:
  59              		.loc 1 79 0
  60              		.cfi_startproc
  61              		@ args = 0, pretend = 0, frame = 0
  62              		@ frame_needed = 0, uses_anonymous_args = 0
  63 0000 08B5     		push	{r3, lr}
  64              		.cfi_def_cfa_offset 8
  65              		.cfi_offset 3, -8
  66              		.cfi_offset 14, -4
  67              		.loc 1 82 0
  68 0002 FFF7FEFF 		bl	SystemCoreClockUpdate
  69              	.LVL1:
  70 0006 08BD     		pop	{r3, pc}
  71              		.cfi_endproc
  72              	.LFE57:
  73              		.size	__initialize_hardware, .-__initialize_hardware
  74              		.text
  75              	.Letext0:
  76              		.file 2 "c:\\program files (x86)\\gnu tools arm embedded\\4.9 2015q1\\lib\\gcc\\arm-none-eabi\\4.9
  77              		.file 3 "../system/include/cmsis/core_cm3.h"
  78              		.file 4 "../system/include/cmsis/system_stm32f10x.h"