   1              		.syntax unified
   2              		.cpu cortex-m3
   3              		.fpu softvfp
   4              		.eabi_attribute 20, 1
   5              		.eabi_attribute 21, 1
   6              		.eabi_attribute 23, 3
   7              		.eabi_attribute 24, 1
   8              		.eabi_attribute 25, 1
   9              		.eabi_attribute 26, 1
  10              		.eabi_attribute 30, 1
  11              		.eabi_attribute 34, 1
  12              		.eabi_attribute 18, 4
  13              		.thumb
  14              		.file	"BlinkLed.cpp"
  15              		.text
  16              	.Ltext0:
  17              		.cfi_sections	.debug_frame
  18              		.section	.text._ZN8BlinkLed7powerUpEv,"ax",%progbits
  19              		.align	2
  20              		.global	_ZN8BlinkLed7powerUpEv
  21              		.thumb
  22              		.thumb_func
  23              		.type	_ZN8BlinkLed7powerUpEv, %function
  24              	_ZN8BlinkLed7powerUpEv:
  25              	.LFB60:
  26              		.file 1 "../src/BlinkLed.cpp"
  27              		.loc 1 12 0
  28              		.cfi_startproc
  29              		@ args = 0, pretend = 0, frame = 8
  30              		@ frame_needed = 0, uses_anonymous_args = 0
  31              	.LVL0:
  32 0000 F0B5     		push	{r4, r5, r6, r7, lr}
  33              		.cfi_def_cfa_offset 20
  34              		.cfi_offset 4, -20
  35              		.cfi_offset 5, -16
  36              		.cfi_offset 6, -12
  37              		.cfi_offset 7, -8
  38              		.cfi_offset 14, -4
  39 0002 83B0     		sub	sp, sp, #12
  40              		.cfi_def_cfa_offset 32
  41              	.LBB7:
  42              		.loc 1 14 0
  43 0004 0820     		movs	r0, #8
  44              	.LVL1:
  45 0006 0121     		movs	r1, #1
  46 0008 FFF7FEFF 		bl	RCC_APB2PeriphClockCmd
  47              	.LVL2:
  48              		.loc 1 17 0
  49 000c 0120     		movs	r0, #1
  50 000e 0146     		mov	r1, r0
  51 0010 FFF7FEFF 		bl	RCC_APB2PeriphClockCmd
  52              	.LVL3:
  53              		.loc 1 18 0
  54 0014 1248     		ldr	r0, .L3
  55 0016 0121     		movs	r1, #1
  56 0018 FFF7FEFF 		bl	GPIO_PinRemapConfig
  57              	.LVL4:
  58              		.loc 1 23 0
  59 001c 1025     		movs	r5, #16
  60 001e ADF80450 		strh	r5, [sp, #4]	@ movhi
  61              		.loc 1 24 0
  62 0022 0227     		movs	r7, #2
  63 0024 8DF80670 		strb	r7, [sp, #6]
  64              		.loc 1 25 0
  65 0028 8DF80750 		strb	r5, [sp, #7]
  66              		.loc 1 26 0
  67 002c 0D4C     		ldr	r4, .L3+4
  68 002e 2046     		mov	r0, r4
  69 0030 01A9     		add	r1, sp, #4
  70 0032 FFF7FEFF 		bl	GPIO_Init
  71              	.LVL5:
  72              		.loc 1 29 0
  73 0036 0826     		movs	r6, #8
  74 0038 ADF80460 		strh	r6, [sp, #4]	@ movhi
  75              		.loc 1 30 0
  76 003c 8DF80670 		strb	r7, [sp, #6]
  77              		.loc 1 31 0
  78 0040 8DF80750 		strb	r5, [sp, #7]
  79              		.loc 1 32 0
  80 0044 2046     		mov	r0, r4
  81 0046 01A9     		add	r1, sp, #4
  82 0048 FFF7FEFF 		bl	GPIO_Init
  83              	.LVL6:
  84              	.LBB8:
  85              	.LBB9:
  86              		.file 2 "../include/BlinkLed.h"
  87              		.loc 2 58 0
  88 004c 2046     		mov	r0, r4
  89 004e 2946     		mov	r1, r5
  90 0050 FFF7FEFF 		bl	GPIO_SetBits
  91              	.LVL7:
  92              	.LBE9:
  93              	.LBE8:
  94              	.LBB10:
  95              	.LBB11:
  96              		.loc 2 84 0
  97 0054 2046     		mov	r0, r4
  98 0056 3146     		mov	r1, r6
  99 0058 FFF7FEFF 		bl	GPIO_SetBits
 100              	.LVL8:
 101              	.LBE11:
 102              	.LBE10:
 103              	.LBE7:
 104              		.loc 1 37 0
 105 005c 03B0     		add	sp, sp, #12
 106              		.cfi_def_cfa_offset 20
 107              		@ sp needed
 108 005e F0BD     		pop	{r4, r5, r6, r7, pc}
 109              	.L4:
 110              		.align	2
 111              	.L3:
 112 0060 00043000 		.word	3146752
 113 0064 000C0140 		.word	1073810432
 114              		.cfi_endproc
 115              	.LFE60:
 116              		.size	_ZN8BlinkLed7powerUpEv, .-_ZN8BlinkLed7powerUpEv
 117              		.text
 118              	.Letext0:
 119              		.file 3 "c:\\program files (x86)\\gnu tools arm embedded\\4.9 2015q1\\lib\\gcc\\arm-none-eabi\\4.9
 120              		.file 4 "../system/include/cmsis/stm32f10x.h"
 121              		.file 5 "../system/include/stm32f1-stdperiph/stm32f10x_gpio.h"
 122              		.file 6 "../system/include/stm32f1-stdperiph/stm32f10x_rcc.h"
 123              		.file 7 "../system/include/cmsis/core_cm3.h"