   1              		.syntax unified
   2              		.cpu cortex-m3
   3              		.fpu softvfp
   4              		.eabi_attribute 20, 1
   5              		.eabi_attribute 21, 1
   6              		.eabi_attribute 23, 3
   7              		.eabi_attribute 24, 1
   8              		.eabi_attribute 25, 1
   9              		.eabi_attribute 26, 1
  10              		.eabi_attribute 30, 1
  11              		.eabi_attribute 34, 1
  12              		.eabi_attribute 18, 4
  13              		.thumb
  14              		.file	"main.cpp"
  15              		.text
  16              	.Ltext0:
  17              		.cfi_sections	.debug_frame
  18              		.section	.text.main,"ax",%progbits
  19              		.align	2
  20              		.global	main
  21              		.thumb
  22              		.thumb_func
  23              		.type	main, %function
  24              	main:
  25              	.LFB69:
  26              		.file 1 "../src/main.cpp"
  27              		.loc 1 72 0
  28              		.cfi_startproc
  29              		@ args = 0, pretend = 0, frame = 8
  30              		@ frame_needed = 0, uses_anonymous_args = 0
  31              	.LVL0:
  32 0000 10B5     		push	{r4, lr}
  33              		.cfi_def_cfa_offset 8
  34              		.cfi_offset 4, -8
  35              		.cfi_offset 14, -4
  36 0002 82B0     		sub	sp, sp, #8
  37              		.cfi_def_cfa_offset 16
  38              	.LBB24:
  39              		.loc 1 73 0
  40 0004 1448     		ldr	r0, .L8
  41              	.LVL1:
  42 0006 FFF7FEFF 		bl	_ZN8BlinkLed7powerUpEv
  43              	.LVL2:
  44              		.loc 1 76 0
  45 000a FFF7FEFF 		bl	_ZN6os_dbg4InitEv
  46              	.LVL3:
  47              	.LBB25:
  48              		.loc 1 77 0
  49 000e 0024     		movs	r4, #0
  50 0010 1BE0     		b	.L2
  51              	.LVL4:
  52              	.L6:
  53              	.LBB26:
  54              	.LBB27:
  55              	.LBB28:
  56              		.file 2 "../include/BlinkLed.h"
  57              		.loc 2 71 0
  58 0012 1248     		ldr	r0, .L8+4
  59 0014 0821     		movs	r1, #8
  60 0016 FFF7FEFF 		bl	GPIO_ResetBits
  61              	.LVL5:
  62              	.LBE28:
  63              	.LBE27:
  64              		.loc 1 79 0
  65 001a 114B     		ldr	r3, .L8+8
  66 001c 0193     		str	r3, [sp, #4]
  67              	.L3:
  68              		.loc 1 80 0 discriminator 1
  69 001e 019B     		ldr	r3, [sp, #4]
  70 0020 5A1E     		subs	r2, r3, #1
  71 0022 0192     		str	r2, [sp, #4]
  72 0024 002B     		cmp	r3, #0
  73 0026 FAD1     		bne	.L3
  74              	.LVL6:
  75              	.LBB29:
  76              	.LBB30:
  77              		.loc 2 84 0
  78 0028 0C48     		ldr	r0, .L8+4
  79 002a 0821     		movs	r1, #8
  80 002c FFF7FEFF 		bl	GPIO_SetBits
  81              	.LVL7:
  82              	.LBE30:
  83              	.LBE29:
  84              		.loc 1 82 0
  85 0030 0C4B     		ldr	r3, .L8+12
  86 0032 0193     		str	r3, [sp, #4]
  87              		.loc 1 83 0
  88 0034 03E0     		b	.L4
  89              	.L5:
  90              		.loc 1 83 0 is_stmt 0 discriminator 2
  91 0036 4FF08052 		mov	r2, #268435456
  92 003a 0B4B     		ldr	r3, .L8+16
  93 003c 5A60     		str	r2, [r3, #4]
  94              	.L4:
  95              		.loc 1 83 0 discriminator 1
  96 003e 019B     		ldr	r3, [sp, #4]
  97 0040 5A1E     		subs	r2, r3, #1
  98 0042 0192     		str	r2, [sp, #4]
  99 0044 002B     		cmp	r3, #0
 100 0046 F6D1     		bne	.L5
 101              	.LBE26:
 102              		.loc 1 77 0 is_stmt 1 discriminator 2
 103 0048 0134     		adds	r4, r4, #1
 104              	.LVL8:
 105              	.L2:
 106              		.loc 1 77 0 is_stmt 0 discriminator 1
 107 004a 1D2C     		cmp	r4, #29
 108 004c E1DD     		ble	.L6
 109              	.LBE25:
 110              		.loc 1 86 0 is_stmt 1
 111 004e FFF7FEFF 		bl	_boot_load
 112              	.LVL9:
 113              	.LBE24:
 114              		.loc 1 87 0
 115 0052 02B0     		add	sp, sp, #8
 116              		.cfi_def_cfa_offset 8
 117              		@ sp needed
 118 0054 10BD     		pop	{r4, pc}
 119              	.LVL10:
 120              	.L9:
 121 0056 00BF     		.align	2
 122              	.L8:
 123 0058 00000000 		.word	.LANCHOR0
 124 005c 000C0140 		.word	1073810432
 125 0060 80841E00 		.word	2000000
 126 0064 40420F00 		.word	1000000
 127 0068 00ED00E0 		.word	-536810240
 128              		.cfi_endproc
 129              	.LFE69:
 130              		.size	main, .-main
 131              		.section	.text._Z11kernel_mainPv,"ax",%progbits
 132              		.align	2
 133              		.global	_Z11kernel_mainPv
 134              		.thumb
 135              		.thumb_func
 136              		.type	_Z11kernel_mainPv, %function
 137              	_Z11kernel_mainPv:
 138              	.LFB70:
 139              		.loc 1 89 0
 140              		.cfi_startproc
 141              		@ args = 0, pretend = 0, frame = 0
 142              		@ frame_needed = 0, uses_anonymous_args = 0
 143              	.LVL11:
 144 0000 F8B5     		push	{r3, r4, r5, r6, r7, lr}
 145              		.cfi_def_cfa_offset 24
 146              		.cfi_offset 3, -24
 147              		.cfi_offset 4, -20
 148              		.cfi_offset 5, -16
 149              		.cfi_offset 6, -12
 150              		.cfi_offset 7, -8
 151              		.cfi_offset 14, -4
 152              	.LVL12:
 153              	.LBB31:
 154              		.loc 1 103 0
 155 0002 0020     		movs	r0, #0
 156              	.LVL13:
 157 0004 FFF7FEFF 		bl	_ZN4Uart7GetUartENS_15UART_CONNECTIONE
 158              	.LVL14:
 159 0008 0646     		mov	r6, r0
 160              	.LVL15:
 161              		.loc 1 104 0
 162 000a 0120     		movs	r0, #1
 163              	.LVL16:
 164 000c FFF7FEFF 		bl	_ZN4Uart14GetUartIsrSafeENS_15UART_CONNECTIONE
 165              	.LVL17:
 166 0010 0746     		mov	r7, r0
 167              	.LVL18:
 168              		.loc 1 106 0
 169 0012 0024     		movs	r4, #0
 170              		.loc 1 107 0
 171 0014 0EE0     		b	.L11
 172              	.LVL19:
 173              	.L12:
 174              		.loc 1 108 0
 175 0016 3046     		mov	r0, r6
 176 0018 0021     		movs	r1, #0
 177 001a FFF7FEFF 		bl	_ZN4Uart8ReadByteEi
 178              	.LVL20:
 179 001e 0146     		mov	r1, r0
 180 0020 C4B2     		uxtb	r4, r0
 181              	.LVL21:
 182              		.loc 1 109 0
 183 0022 3046     		mov	r0, r6
 184 0024 FFF7FEFF 		bl	_ZN4Uart9WriteByteEh
 185              	.LVL22:
 186              		.loc 1 110 0
 187 0028 3846     		mov	r0, r7
 188 002a 61B2     		sxtb	r1, r4
 189 002c 0222     		movs	r2, #2
 190 002e 0123     		movs	r3, #1
 191 0030 FFF7FEFF 		bl	_ZN4Uart8WriteHexEmib
 192              	.LVL23:
 193              	.L11:
 194              		.loc 1 107 0
 195 0034 64B2     		sxtb	r4, r4
 196 0036 712C     		cmp	r4, #113
 197 0038 EDD1     		bne	.L12
 198 003a 1E23     		movs	r3, #30
 199 003c 2EE0     		b	.L13
 200              	.LVL24:
 201              	.L16:
 202              	.LBB32:
 203              	.LBB33:
 204              	.LBB34:
 205              		.loc 2 71 0
 206 003e 2148     		ldr	r0, .L19
 207 0040 0821     		movs	r1, #8
 208 0042 FFF7FEFF 		bl	GPIO_ResetBits
 209              	.LVL25:
 210              	.LBE34:
 211              	.LBE33:
 212              		.loc 1 122 0
 213 0046 FFF7FEFF 		bl	_ZN2OS11SystemTicksEv
 214              	.LVL26:
 215 004a 00F59C54 		add	r4, r0, #4992
 216 004e 0834     		adds	r4, r4, #8
 217              	.LVL27:
 218              	.L14:
 219              		.loc 1 123 0 discriminator 1
 220 0050 FFF7FEFF 		bl	_ZN2OS11SystemTicksEv
 221              	.LVL28:
 222 0054 201A     		subs	r0, r4, r0
 223 0056 0028     		cmp	r0, #0
 224 0058 FADC     		bgt	.L14
 225              	.LVL29:
 226              	.LBB35:
 227              	.LBB36:
 228              		.loc 2 84 0
 229 005a 1A48     		ldr	r0, .L19
 230 005c 0821     		movs	r1, #8
 231 005e FFF7FEFF 		bl	GPIO_SetBits
 232              	.LVL30:
 233              	.LBE36:
 234              	.LBE35:
 235              		.loc 1 127 0
 236 0062 FFF7FEFF 		bl	_ZN2OS11SystemTicksEv
 237              	.LVL31:
 238 0066 00F59C54 		add	r4, r0, #4992
 239              	.LVL32:
 240 006a 0834     		adds	r4, r4, #8
 241              	.LVL33:
 242              	.L15:
 243              		.loc 1 128 0 discriminator 1
 244 006c FFF7FEFF 		bl	_ZN2OS11SystemTicksEv
 245              	.LVL34:
 246 0070 201A     		subs	r0, r4, r0
 247 0072 0028     		cmp	r0, #0
 248 0074 FADC     		bgt	.L15
 249              	.LVL35:
 250              		.loc 1 134 0
 251 0076 144C     		ldr	r4, .L19+4
 252              	.LVL36:
 253 0078 2046     		mov	r0, r4
 254 007a FFF7FEFF 		bl	strlen
 255              	.LVL37:
 256 007e 0246     		mov	r2, r0
 257 0080 3046     		mov	r0, r6
 258 0082 2146     		mov	r1, r4
 259 0084 FFF7FEFF 		bl	_ZN4Uart10WriteBytesEPvi
 260              	.LVL38:
 261              		.loc 1 135 0
 262 0088 104C     		ldr	r4, .L19+8
 263 008a 2046     		mov	r0, r4
 264 008c FFF7FEFF 		bl	strlen
 265              	.LVL39:
 266 0090 0246     		mov	r2, r0
 267 0092 3846     		mov	r0, r7
 268 0094 2146     		mov	r1, r4
 269 0096 FFF7FEFF 		bl	_ZN4Uart12WriteIsrSafeEPvi
 270              	.LVL40:
 271              	.LBE32:
 272              		.loc 1 118 0
 273 009a 2B46     		mov	r3, r5
 274              	.LVL41:
 275              	.L13:
 276 009c 5D1E     		subs	r5, r3, #1
 277              	.LVL42:
 278 009e 002B     		cmp	r3, #0
 279 00a0 CDD1     		bne	.L16
 280              	.LVL43:
 281              	.LBB37:
 282              	.LBB38:
 283              		.loc 2 45 0
 284 00a2 0848     		ldr	r0, .L19
 285 00a4 1021     		movs	r1, #16
 286 00a6 FFF7FEFF 		bl	GPIO_ResetBits
 287              	.LVL44:
 288              	.LBE38:
 289              	.LBE37:
 290              		.loc 1 146 0
 291 00aa FFF7FEFF 		bl	_ZN2OS11SystemTicksEv
 292              	.LVL45:
 293 00ae 00F51C44 		add	r4, r0, #39936
 294 00b2 4034     		adds	r4, r4, #64
 295              	.LVL46:
 296              	.L17:
 297              		.loc 1 147 0 discriminator 1
 298 00b4 FFF7FEFF 		bl	_ZN2OS11SystemTicksEv
 299              	.LVL47:
 300 00b8 201A     		subs	r0, r4, r0
 301 00ba 0028     		cmp	r0, #0
 302 00bc FADC     		bgt	.L17
 303              		.loc 1 149 0
 304 00be FFF7FEFF 		bl	_boot_load
 305              	.LVL48:
 306              	.LBE31:
 307              		.loc 1 151 0
 308 00c2 F8BD     		pop	{r3, r4, r5, r6, r7, pc}
 309              	.LVL49:
 310              	.L20:
 311              		.align	2
 312              	.L19:
 313 00c4 000C0140 		.word	1073810432
 314 00c8 00000000 		.word	.LC0
 315 00cc 28000000 		.word	.LC1
 316              		.cfi_endproc
 317              	.LFE70:
 318              		.size	_Z11kernel_mainPv, .-_Z11kernel_mainPv
 319              		.section	.text.HardFault_Handler,"ax",%progbits
 320              		.align	2
 321              		.global	HardFault_Handler
 322              		.thumb
 323              		.thumb_func
 324              		.type	HardFault_Handler, %function
 325              	HardFault_Handler:
 326              	.LFB71:
 327              		.loc 1 153 0
 328              		.cfi_startproc
 329              		@ args = 0, pretend = 0, frame = 8
 330              		@ frame_needed = 0, uses_anonymous_args = 0
 331 0000 00B5     		push	{lr}
 332              		.cfi_def_cfa_offset 4
 333              		.cfi_offset 14, -4
 334 0002 83B0     		sub	sp, sp, #12
 335              		.cfi_def_cfa_offset 16
 336              	.L24:
 337              	.LVL50:
 338              	.LBB39:
 339              	.LBB40:
 340              	.LBB41:
 341              		.loc 2 45 0
 342 0004 0B48     		ldr	r0, .L26
 343 0006 1021     		movs	r1, #16
 344 0008 FFF7FEFF 		bl	GPIO_ResetBits
 345              	.LVL51:
 346              	.LBE41:
 347              	.LBE40:
 348              		.loc 1 156 0
 349 000c 0A4B     		ldr	r3, .L26+4
 350 000e 0193     		str	r3, [sp, #4]
 351              	.L22:
 352              		.loc 1 157 0 discriminator 1
 353 0010 019B     		ldr	r3, [sp, #4]
 354 0012 5A1E     		subs	r2, r3, #1
 355 0014 0192     		str	r2, [sp, #4]
 356 0016 002B     		cmp	r3, #0
 357 0018 FAD1     		bne	.L22
 358              	.LVL52:
 359              	.LBB42:
 360              	.LBB43:
 361              		.loc 2 58 0
 362 001a 0648     		ldr	r0, .L26
 363 001c 1021     		movs	r1, #16
 364 001e FFF7FEFF 		bl	GPIO_SetBits
 365              	.LVL53:
 366              	.LBE43:
 367              	.LBE42:
 368              		.loc 1 159 0
 369 0022 054B     		ldr	r3, .L26+4
 370 0024 0193     		str	r3, [sp, #4]
 371              	.L23:
 372              		.loc 1 160 0 discriminator 1
 373 0026 019B     		ldr	r3, [sp, #4]
 374 0028 5A1E     		subs	r2, r3, #1
 375 002a 0192     		str	r2, [sp, #4]
 376 002c 002B     		cmp	r3, #0
 377 002e FAD1     		bne	.L23
 378 0030 E8E7     		b	.L24
 379              	.L27:
 380 0032 00BF     		.align	2
 381              	.L26:
 382 0034 000C0140 		.word	1073810432
 383 0038 40420F00 		.word	1000000
 384              	.LBE39:
 385              		.cfi_endproc
 386              	.LFE71:
 387              		.size	HardFault_Handler, .-HardFault_Handler
 388              		.global	blinkLed
 389              		.section	.rodata.str1.4,"aMS",%progbits,1
 390              		.align	2
 391              	.LC0:
 392 0000 48657265 		.ascii	"Here I am writing things for Uart1\015\012\000"
 392      20492061 
 392      6D207772 
 392      6974696E 
 392      67207468 
 393 0025 000000   		.space	3
 394              	.LC1:
 395 0028 48657265 		.ascii	"Here I am writing things for Uart2\015\012\000"
 395      20492061 
 395      6D207772 
 395      6974696E 
 395      67207468 
 396 004d 000000   		.section	.bss.blinkLed,"aw",%nobits
 397              		.align	2
 398              		.set	.LANCHOR0,. + 0
 399              		.type	blinkLed, %object
 400              		.size	blinkLed, 1
 401              	blinkLed:
 402 0000 00       		.space	1
 403 0001 000000   		.text
 404              	.Letext0:
 405              		.file 3 "c:\\program files (x86)\\gnu tools arm embedded\\4.9 2015q1\\lib\\gcc\\arm-none-eabi\\4.9
 406              		.file 4 "c:\\program files (x86)\\gnu tools arm embedded\\4.9 2015q1\\lib\\gcc\\arm-none-eabi\\4.9
 407              		.file 5 "../system/include/cmsis/core_cm3.h"
 408              		.file 6 "../system/include/cmsis/stm32f10x.h"
 409              		.file 7 "../include/types.h"
 410              		.file 8 "../include/os/mutex.h"
 411              		.file 9 "../include/modules/uart.h"
 412              		.file 10 "../system/include/diag/Trace.h"
 413              		.file 11 "../system/include/stm32f1-stdperiph/stm32f10x_gpio.h"
 414              		.file 12 "c:\\program files (x86)\\gnu tools arm embedded\\4.9 2015q1\\arm-none-eabi\\include\\str
 415              		.file 13 "../include/os.h"
 416              		.file 14 "../include/os_dbg.h"
 417              		.file 15 "../system/include/newlib/_boot.h"