   1              		.syntax unified
   2              		.cpu cortex-m3
   3              		.fpu softvfp
   4              		.eabi_attribute 20, 1
   5              		.eabi_attribute 21, 1
   6              		.eabi_attribute 23, 3
   7              		.eabi_attribute 24, 1
   8              		.eabi_attribute 25, 1
   9              		.eabi_attribute 26, 1
  10              		.eabi_attribute 30, 1
  11              		.eabi_attribute 34, 1
  12              		.eabi_attribute 18, 4
  13              		.thumb
  14              		.file	"misc.c"
  15              		.text
  16              	.Ltext0:
  17              		.cfi_sections	.debug_frame
  18              		.section	.text.NVIC_PriorityGroupConfig,"ax",%progbits
  19              		.align	2
  20              		.global	NVIC_PriorityGroupConfig
  21              		.thumb
  22              		.thumb_func
  23              		.type	NVIC_PriorityGroupConfig, %function
  24              	NVIC_PriorityGroupConfig:
  25              	.LFB56:
  26              		.file 1 "../system/src/stm32f1-stdperiph/misc.c"
  27              		.loc 1 97 0
  28              		.cfi_startproc
  29              		@ args = 0, pretend = 0, frame = 0
  30              		@ frame_needed = 0, uses_anonymous_args = 0
  31              	.LVL0:
  32 0000 10B5     		push	{r4, lr}
  33              		.cfi_def_cfa_offset 8
  34              		.cfi_offset 4, -8
  35              		.cfi_offset 14, -4
  36 0002 0446     		mov	r4, r0
  37              		.loc 1 99 0
  38 0004 B0F5E06F 		cmp	r0, #1792
  39 0008 0FD0     		beq	.L2
  40              		.loc 1 99 0 is_stmt 0 discriminator 1
  41 000a B0F5C06F 		cmp	r0, #1536
  42 000e 0CD0     		beq	.L2
  43              		.loc 1 99 0 discriminator 2
  44 0010 B0F5A06F 		cmp	r0, #1280
  45 0014 09D0     		beq	.L2
  46              		.loc 1 99 0 discriminator 3
  47 0016 B0F5806F 		cmp	r0, #1024
  48 001a 06D0     		beq	.L2
  49              		.loc 1 99 0 discriminator 4
  50 001c B0F5407F 		cmp	r0, #768
  51 0020 03D0     		beq	.L2
  52              		.loc 1 99 0 discriminator 5
  53 0022 0548     		ldr	r0, .L4
  54              	.LVL1:
  55 0024 6321     		movs	r1, #99
  56 0026 FFF7FEFF 		bl	assert_failed
  57              	.LVL2:
  58              	.L2:
  59              		.loc 1 102 0 is_stmt 1
  60 002a 44F0BF64 		orr	r4, r4, #100139008
  61              	.LVL3:
  62 002e 44F40034 		orr	r4, r4, #131072
  63 0032 024B     		ldr	r3, .L4+4
  64 0034 DC60     		str	r4, [r3, #12]
  65 0036 10BD     		pop	{r4, pc}
  66              	.L5:
  67              		.align	2
  68              	.L4:
  69 0038 00000000 		.word	.LC0
  70 003c 00ED00E0 		.word	-536810240
  71              		.cfi_endproc
  72              	.LFE56:
  73              		.size	NVIC_PriorityGroupConfig, .-NVIC_PriorityGroupConfig
  74              		.section	.text.NVIC_Init,"ax",%progbits
  75              		.align	2
  76              		.global	NVIC_Init
  77              		.thumb
  78              		.thumb_func
  79              		.type	NVIC_Init, %function
  80              	NVIC_Init:
  81              	.LFB57:
  82              		.loc 1 113 0
  83              		.cfi_startproc
  84              		@ args = 0, pretend = 0, frame = 0
  85              		@ frame_needed = 0, uses_anonymous_args = 0
  86              	.LVL4:
  87 0000 10B5     		push	{r4, lr}
  88              		.cfi_def_cfa_offset 8
  89              		.cfi_offset 4, -8
  90              		.cfi_offset 14, -4
  91 0002 0446     		mov	r4, r0
  92              	.LVL5:
  93              		.loc 1 117 0
  94 0004 C378     		ldrb	r3, [r0, #3]	@ zero_extendqisi2
  95 0006 012B     		cmp	r3, #1
  96 0008 03D9     		bls	.L7
  97              		.loc 1 117 0 is_stmt 0 discriminator 1
  98 000a 2048     		ldr	r0, .L13
  99              	.LVL6:
 100 000c 7521     		movs	r1, #117
 101 000e FFF7FEFF 		bl	assert_failed
 102              	.LVL7:
 103              	.L7:
 104              		.loc 1 118 0 is_stmt 1
 105 0012 6378     		ldrb	r3, [r4, #1]	@ zero_extendqisi2
 106 0014 0F2B     		cmp	r3, #15
 107 0016 03D9     		bls	.L8
 108              		.loc 1 118 0 is_stmt 0 discriminator 1
 109 0018 1C48     		ldr	r0, .L13
 110 001a 7621     		movs	r1, #118
 111 001c FFF7FEFF 		bl	assert_failed
 112              	.LVL8:
 113              	.L8:
 114              		.loc 1 119 0 is_stmt 1
 115 0020 A378     		ldrb	r3, [r4, #2]	@ zero_extendqisi2
 116 0022 0F2B     		cmp	r3, #15
 117 0024 03D9     		bls	.L9
 118              		.loc 1 119 0 is_stmt 0 discriminator 1
 119 0026 1948     		ldr	r0, .L13
 120 0028 7721     		movs	r1, #119
 121 002a FFF7FEFF 		bl	assert_failed
 122              	.LVL9:
 123              	.L9:
 124              		.loc 1 121 0 is_stmt 1
 125 002e E378     		ldrb	r3, [r4, #3]	@ zero_extendqisi2
 126 0030 03B3     		cbz	r3, .L10
 127              		.loc 1 124 0
 128 0032 174B     		ldr	r3, .L13+4
 129 0034 DA68     		ldr	r2, [r3, #12]
 130 0036 D243     		mvns	r2, r2
 131 0038 C2F30222 		ubfx	r2, r2, #8, #3
 132              	.LVL10:
 133              		.loc 1 125 0
 134 003c C2F10400 		rsb	r0, r2, #4
 135              	.LVL11:
 136              		.loc 1 126 0
 137 0040 0F23     		movs	r3, #15
 138 0042 23FA02F1 		lsr	r1, r3, r2
 139              	.LVL12:
 140              		.loc 1 128 0
 141 0046 6378     		ldrb	r3, [r4, #1]	@ zero_extendqisi2
 142 0048 03FA00F2 		lsl	r2, r3, r0
 143              	.LVL13:
 144              		.loc 1 129 0
 145 004c A378     		ldrb	r3, [r4, #2]	@ zero_extendqisi2
 146 004e 0B40     		ands	r3, r3, r1
 147 0050 1343     		orrs	r3, r3, r2
 148              	.LVL14:
 149              		.loc 1 130 0
 150 0052 1B01     		lsls	r3, r3, #4
 151              	.LVL15:
 152              		.loc 1 138 0
 153 0054 2278     		ldrb	r2, [r4]	@ zero_extendqisi2
 154 0056 DBB2     		uxtb	r3, r3
 155              	.LVL16:
 156 0058 0E49     		ldr	r1, .L13+8
 157              	.LVL17:
 158 005a 0A44     		add	r2, r2, r1
 159 005c 82F80033 		strb	r3, [r2, #768]
 160              		.loc 1 146 0
 161 0060 2378     		ldrb	r3, [r4]	@ zero_extendqisi2
 162 0062 5809     		lsrs	r0, r3, #5
 163              	.LVL18:
 164              		.loc 1 147 0
 165 0064 03F01F03 		and	r3, r3, #31
 166 0068 0122     		movs	r2, #1
 167 006a 02FA03F3 		lsl	r3, r2, r3
 168              		.loc 1 146 0
 169 006e 41F82030 		str	r3, [r1, r0, lsl #2]
 170 0072 10BD     		pop	{r4, pc}
 171              	.LVL19:
 172              	.L10:
 173              		.loc 1 152 0
 174 0074 2378     		ldrb	r3, [r4]	@ zero_extendqisi2
 175 0076 5A09     		lsrs	r2, r3, #5
 176              		.loc 1 153 0
 177 0078 03F01F03 		and	r3, r3, #31
 178 007c 0121     		movs	r1, #1
 179 007e 9940     		lsls	r1, r1, r3
 180              		.loc 1 152 0
 181 0080 02F12003 		add	r3, r2, #32
 182 0084 034A     		ldr	r2, .L13+8
 183 0086 42F82310 		str	r1, [r2, r3, lsl #2]
 184 008a 10BD     		pop	{r4, pc}
 185              	.LVL20:
 186              	.L14:
 187              		.align	2
 188              	.L13:
 189 008c 00000000 		.word	.LC0
 190 0090 00ED00E0 		.word	-536810240
 191 0094 00E100E0 		.word	-536813312
 192              		.cfi_endproc
 193              	.LFE57:
 194              		.size	NVIC_Init, .-NVIC_Init
 195              		.section	.text.NVIC_SetVectorTable,"ax",%progbits
 196              		.align	2
 197              		.global	NVIC_SetVectorTable
 198              		.thumb
 199              		.thumb_func
 200              		.type	NVIC_SetVectorTable, %function
 201              	NVIC_SetVectorTable:
 202              	.LFB58:
 203              		.loc 1 168 0
 204              		.cfi_startproc
 205              		@ args = 0, pretend = 0, frame = 0
 206              		@ frame_needed = 0, uses_anonymous_args = 0
 207              	.LVL21:
 208 0000 38B5     		push	{r3, r4, r5, lr}
 209              		.cfi_def_cfa_offset 16
 210              		.cfi_offset 3, -16
 211              		.cfi_offset 4, -12
 212              		.cfi_offset 5, -8
 213              		.cfi_offset 14, -4
 214 0002 0546     		mov	r5, r0
 215 0004 0C46     		mov	r4, r1
 216              		.loc 1 170 0
 217 0006 B0F1005F 		cmp	r0, #536870912
 218 000a 06D0     		beq	.L16
 219              		.loc 1 170 0 is_stmt 0 discriminator 1
 220 000c B0F1006F 		cmp	r0, #134217728
 221 0010 03D0     		beq	.L16
 222              		.loc 1 170 0 discriminator 2
 223 0012 0948     		ldr	r0, .L19
 224              	.LVL22:
 225 0014 AA21     		movs	r1, #170
 226              	.LVL23:
 227 0016 FFF7FEFF 		bl	assert_failed
 228              	.LVL24:
 229              	.L16:
 230              		.loc 1 171 0 is_stmt 1
 231 001a 084B     		ldr	r3, .L19+4
 232 001c 9C42     		cmp	r4, r3
 233 001e 03D9     		bls	.L17
 234              		.loc 1 171 0 is_stmt 0 discriminator 1
 235 0020 0548     		ldr	r0, .L19
 236 0022 AB21     		movs	r1, #171
 237 0024 FFF7FEFF 		bl	assert_failed
 238              	.LVL25:
 239              	.L17:
 240              		.loc 1 173 0 is_stmt 1
 241 0028 24F06041 		bic	r1, r4, #-536870912
 242 002c 21F07F01 		bic	r1, r1, #127
 243 0030 2943     		orrs	r1, r1, r5
 244 0032 034B     		ldr	r3, .L19+8
 245 0034 9960     		str	r1, [r3, #8]
 246 0036 38BD     		pop	{r3, r4, r5, pc}
 247              	.LVL26:
 248              	.L20:
 249              		.align	2
 250              	.L19:
 251 0038 00000000 		.word	.LC0
 252 003c FEFF0F00 		.word	1048574
 253 0040 00ED00E0 		.word	-536810240
 254              		.cfi_endproc
 255              	.LFE58:
 256              		.size	NVIC_SetVectorTable, .-NVIC_SetVectorTable
 257              		.section	.text.NVIC_SystemLPConfig,"ax",%progbits
 258              		.align	2
 259              		.global	NVIC_SystemLPConfig
 260              		.thumb
 261              		.thumb_func
 262              		.type	NVIC_SystemLPConfig, %function
 263              	NVIC_SystemLPConfig:
 264              	.LFB59:
 265              		.loc 1 187 0
 266              		.cfi_startproc
 267              		@ args = 0, pretend = 0, frame = 0
 268              		@ frame_needed = 0, uses_anonymous_args = 0
 269              	.LVL27:
 270 0000 38B5     		push	{r3, r4, r5, lr}
 271              		.cfi_def_cfa_offset 16
 272              		.cfi_offset 3, -16
 273              		.cfi_offset 4, -12
 274              		.cfi_offset 5, -8
 275              		.cfi_offset 14, -4
 276 0002 0446     		mov	r4, r0
 277 0004 0D46     		mov	r5, r1
 278              		.loc 1 189 0
 279 0006 1028     		cmp	r0, #16
 280 0008 07D0     		beq	.L22
 281              		.loc 1 189 0 is_stmt 0 discriminator 1
 282 000a 0428     		cmp	r0, #4
 283 000c 05D0     		beq	.L22
 284              		.loc 1 189 0 discriminator 2
 285 000e 0228     		cmp	r0, #2
 286 0010 03D0     		beq	.L22
 287              		.loc 1 189 0 discriminator 3
 288 0012 0B48     		ldr	r0, .L27
 289              	.LVL28:
 290 0014 BD21     		movs	r1, #189
 291              	.LVL29:
 292 0016 FFF7FEFF 		bl	assert_failed
 293              	.LVL30:
 294              	.L22:
 295              		.loc 1 190 0 is_stmt 1
 296 001a 012D     		cmp	r5, #1
 297 001c 03D9     		bls	.L23
 298              		.loc 1 190 0 is_stmt 0 discriminator 1
 299 001e 0848     		ldr	r0, .L27
 300 0020 BE21     		movs	r1, #190
 301 0022 FFF7FEFF 		bl	assert_failed
 302              	.LVL31:
 303              	.L23:
 304              		.loc 1 192 0 is_stmt 1
 305 0026 25B1     		cbz	r5, .L24
 306              		.loc 1 194 0
 307 0028 064B     		ldr	r3, .L27+4
 308 002a 1A69     		ldr	r2, [r3, #16]
 309 002c 1443     		orrs	r4, r4, r2
 310 002e 1C61     		str	r4, [r3, #16]
 311 0030 38BD     		pop	{r3, r4, r5, pc}
 312              	.L24:
 313              		.loc 1 198 0
 314 0032 044A     		ldr	r2, .L27+4
 315 0034 1369     		ldr	r3, [r2, #16]
 316 0036 23EA0404 		bic	r4, r3, r4
 317 003a 1461     		str	r4, [r2, #16]
 318 003c 38BD     		pop	{r3, r4, r5, pc}
 319              	.L28:
 320 003e 00BF     		.align	2
 321              	.L27:
 322 0040 00000000 		.word	.LC0
 323 0044 00ED00E0 		.word	-536810240
 324              		.cfi_endproc
 325              	.LFE59:
 326              		.size	NVIC_SystemLPConfig, .-NVIC_SystemLPConfig
 327              		.section	.text.SysTick_CLKSourceConfig,"ax",%progbits
 328              		.align	2
 329              		.global	SysTick_CLKSourceConfig
 330              		.thumb
 331              		.thumb_func
 332              		.type	SysTick_CLKSourceConfig, %function
 333              	SysTick_CLKSourceConfig:
 334              	.LFB60:
 335              		.loc 1 211 0
 336              		.cfi_startproc
 337              		@ args = 0, pretend = 0, frame = 0
 338              		@ frame_needed = 0, uses_anonymous_args = 0
 339              	.LVL32:
 340 0000 10B5     		push	{r4, lr}
 341              		.cfi_def_cfa_offset 8
 342              		.cfi_offset 4, -8
 343              		.cfi_offset 14, -4
 344 0002 0446     		mov	r4, r0
 345              		.loc 1 213 0
 346 0004 0428     		cmp	r0, #4
 347 0006 06D0     		beq	.L30
 348              		.loc 1 213 0 is_stmt 0 discriminator 1
 349 0008 10F1050F 		cmn	r0, #5
 350 000c 03D0     		beq	.L30
 351              		.loc 1 213 0 discriminator 2
 352 000e 0948     		ldr	r0, .L34
 353              	.LVL33:
 354 0010 D521     		movs	r1, #213
 355 0012 FFF7FEFF 		bl	assert_failed
 356              	.LVL34:
 357              	.L30:
 358              		.loc 1 214 0 is_stmt 1
 359 0016 042C     		cmp	r4, #4
 360 0018 05D1     		bne	.L31
 361              		.loc 1 216 0
 362 001a 074A     		ldr	r2, .L34+4
 363 001c 1368     		ldr	r3, [r2]
 364 001e 43F00403 		orr	r3, r3, #4
 365 0022 1360     		str	r3, [r2]
 366 0024 10BD     		pop	{r4, pc}
 367              	.LVL35:
 368              	.L31:
 369              		.loc 1 220 0
 370 0026 044A     		ldr	r2, .L34+4
 371 0028 1368     		ldr	r3, [r2]
 372 002a 23F00403 		bic	r3, r3, #4
 373 002e 1360     		str	r3, [r2]
 374 0030 10BD     		pop	{r4, pc}
 375              	.LVL36:
 376              	.L35:
 377 0032 00BF     		.align	2
 378              	.L34:
 379 0034 00000000 		.word	.LC0
 380 0038 10E000E0 		.word	-536813552
 381              		.cfi_endproc
 382              	.LFE60:
 383              		.size	SysTick_CLKSourceConfig, .-SysTick_CLKSourceConfig
 384              		.section	.rodata.str1.4,"aMS",%progbits,1
 385              		.align	2
 386              	.LC0:
 387 0000 2E2E2F73 		.ascii	"../system/src/stm32f1-stdperiph/misc.c\000"
 387      79737465 
 387      6D2F7372 
 387      632F7374 
 387      6D333266 
 388 0027 00       		.text
 389              	.Letext0:
 390              		.file 2 "c:\\program files (x86)\\gnu tools arm embedded\\4.9 2015q1\\lib\\gcc\\arm-none-eabi\\4.9
 391              		.file 3 "../system/include/cmsis/core_cm3.h"
 392              		.file 4 "../system/include/cmsis/stm32f10x.h"
 393              		.file 5 "../system/include/stm32f1-stdperiph/misc.h"
 394              		.file 6 "../include/stm32f10x_conf.h"