   1              		.syntax unified
   2              		.cpu cortex-m3
   3              		.fpu softvfp
   4              		.eabi_attribute 20, 1
   5              		.eabi_attribute 21, 1
   6              		.eabi_attribute 23, 3
   7              		.eabi_attribute 24, 1
   8              		.eabi_attribute 25, 1
   9              		.eabi_attribute 26, 1
  10              		.eabi_attribute 30, 1
  11              		.eabi_attribute 34, 1
  12              		.eabi_attribute 18, 4
  13              		.thumb
  14              		.file	"mutex.cpp"
  15              		.text
  16              	.Ltext0:
  17              		.cfi_sections	.debug_frame
  18              		.section	.text._ZN2OS5MutexC2Ev,"ax",%progbits
  19              		.align	2
  20              		.global	_ZN2OS5MutexC2Ev
  21              		.thumb
  22              		.thumb_func
  23              		.type	_ZN2OS5MutexC2Ev, %function
  24              	_ZN2OS5MutexC2Ev:
  25              	.LFB58:
  26              		.file 1 "../src/os/mutex.cpp"
  27              		.loc 1 7 0
  28              		.cfi_startproc
  29              		@ args = 0, pretend = 0, frame = 0
  30              		@ frame_needed = 0, uses_anonymous_args = 0
  31              		@ link register save eliminated.
  32              	.LVL0:
  33              	.LBB2:
  34              		.loc 1 8 0
  35 0000 0022     		movs	r2, #0
  36 0002 0270     		strb	r2, [r0]
  37              	.LBE2:
  38              		.loc 1 9 0
  39 0004 7047     		bx	lr
  40              		.cfi_endproc
  41              	.LFE58:
  42              		.size	_ZN2OS5MutexC2Ev, .-_ZN2OS5MutexC2Ev
  43              		.global	_ZN2OS5MutexC1Ev
  44              		.thumb_set _ZN2OS5MutexC1Ev,_ZN2OS5MutexC2Ev
  45 0006 00BF     		.section	.text._ZN2OS5Mutex8PendLockEv,"ax",%progbits
  46              		.align	2
  47              		.global	_ZN2OS5Mutex8PendLockEv
  48              		.thumb
  49              		.thumb_func
  50              		.type	_ZN2OS5Mutex8PendLockEv, %function
  51              	_ZN2OS5Mutex8PendLockEv:
  52              	.LFB60:
  53              		.loc 1 11 0
  54              		.cfi_startproc
  55              		@ args = 0, pretend = 0, frame = 0
  56              		@ frame_needed = 0, uses_anonymous_args = 0
  57              	.LVL1:
  58 0000 10B5     		push	{r4, lr}
  59              		.cfi_def_cfa_offset 8
  60              		.cfi_offset 4, -8
  61              		.cfi_offset 14, -4
  62 0002 0446     		mov	r4, r0
  63              	.LVL2:
  64              	.L3:
  65              		.loc 1 13 0
  66 0004 2378     		ldrb	r3, [r4]	@ zero_extendqisi2
  67 0006 13F0FF0F 		tst	r3, #255
  68 000a 02D0     		beq	.L4
  69              		.loc 1 14 0
  70 000c FFF7FEFF 		bl	_ZN2OS10SwitchTaskEv
  71              	.LVL3:
  72 0010 F8E7     		b	.L3
  73              	.L4:
  74              		.loc 1 16 0
  75 0012 FFF7FEFF 		bl	_ZN2OS15__enterCriticalEv
  76              	.LVL4:
  77              		.loc 1 17 0
  78 0016 2378     		ldrb	r3, [r4]	@ zero_extendqisi2
  79 0018 13F0FF0F 		tst	r3, #255
  80 001c 02D0     		beq	.L6
  81              		.loc 1 18 0
  82 001e FFF7FEFF 		bl	_ZN2OS14__exitCriticalEv
  83              	.LVL5:
  84              		.loc 1 19 0
  85 0022 EFE7     		b	.L3
  86              	.L6:
  87              		.loc 1 21 0
  88 0024 0123     		movs	r3, #1
  89 0026 2370     		strb	r3, [r4]
  90              		.loc 1 22 0
  91 0028 FFF7FEFF 		bl	_ZN2OS14__exitCriticalEv
  92              	.LVL6:
  93 002c 10BD     		pop	{r4, pc}
  94              		.cfi_endproc
  95              	.LFE60:
  96              		.size	_ZN2OS5Mutex8PendLockEv, .-_ZN2OS5Mutex8PendLockEv
  97 002e 00BF     		.section	.text._ZN2OS5Mutex8PendLockEi,"ax",%progbits
  98              		.align	2
  99              		.global	_ZN2OS5Mutex8PendLockEi
 100              		.thumb
 101              		.thumb_func
 102              		.type	_ZN2OS5Mutex8PendLockEi, %function
 103              	_ZN2OS5Mutex8PendLockEi:
 104              	.LFB61:
 105              		.loc 1 29 0
 106              		.cfi_startproc
 107              		@ args = 0, pretend = 0, frame = 0
 108              		@ frame_needed = 0, uses_anonymous_args = 0
 109              	.LVL7:
 110 0000 70B5     		push	{r4, r5, r6, lr}
 111              		.cfi_def_cfa_offset 16
 112              		.cfi_offset 4, -16
 113              		.cfi_offset 5, -12
 114              		.cfi_offset 6, -8
 115              		.cfi_offset 14, -4
 116 0002 0446     		mov	r4, r0
 117 0004 0E46     		mov	r6, r1
 118              	.LBB3:
 119              		.loc 1 30 0
 120 0006 FFF7FEFF 		bl	_ZN2OS11SystemTicksEv
 121              	.LVL8:
 122 000a 0546     		mov	r5, r0
 123              	.LVL9:
 124              		.loc 1 31 0
 125 000c 15E0     		b	.L9
 126              	.LVL10:
 127              	.L14:
 128              		.loc 1 32 0
 129 000e 2378     		ldrb	r3, [r4]	@ zero_extendqisi2
 130 0010 13F0FF0F 		tst	r3, #255
 131 0014 02D0     		beq	.L10
 132              		.loc 1 33 0
 133 0016 FFF7FEFF 		bl	_ZN2OS10SwitchTaskEv
 134              	.LVL11:
 135 001a 0EE0     		b	.L9
 136              	.L10:
 137              		.loc 1 35 0
 138 001c FFF7FEFF 		bl	_ZN2OS15__enterCriticalEv
 139              	.LVL12:
 140              		.loc 1 36 0
 141 0020 2378     		ldrb	r3, [r4]	@ zero_extendqisi2
 142 0022 13F0FF0F 		tst	r3, #255
 143 0026 02D0     		beq	.L12
 144              		.loc 1 37 0
 145 0028 FFF7FEFF 		bl	_ZN2OS14__exitCriticalEv
 146              	.LVL13:
 147              		.loc 1 38 0
 148 002c 05E0     		b	.L9
 149              	.L12:
 150              		.loc 1 40 0
 151 002e 0125     		movs	r5, #1
 152              	.LVL14:
 153 0030 2570     		strb	r5, [r4]
 154              		.loc 1 41 0
 155 0032 FFF7FEFF 		bl	_ZN2OS14__exitCriticalEv
 156              	.LVL15:
 157              		.loc 1 42 0
 158 0036 2846     		mov	r0, r5
 159 0038 70BD     		pop	{r4, r5, r6, pc}
 160              	.LVL16:
 161              	.L9:
 162              		.loc 1 31 0
 163 003a FFF7FEFF 		bl	_ZN2OS11SystemTicksEv
 164              	.LVL17:
 165 003e 401B     		subs	r0, r0, r5
 166 0040 B042     		cmp	r0, r6
 167 0042 E4DB     		blt	.L14
 168              		.loc 1 46 0
 169 0044 0020     		movs	r0, #0
 170              	.LBE3:
 171              		.loc 1 47 0
 172 0046 70BD     		pop	{r4, r5, r6, pc}
 173              		.cfi_endproc
 174              	.LFE61:
 175              		.size	_ZN2OS5Mutex8PendLockEi, .-_ZN2OS5Mutex8PendLockEi
 176              		.section	.text._ZN2OS5Mutex7TryLockEv,"ax",%progbits
 177              		.align	2
 178              		.global	_ZN2OS5Mutex7TryLockEv
 179              		.thumb
 180              		.thumb_func
 181              		.type	_ZN2OS5Mutex7TryLockEv, %function
 182              	_ZN2OS5Mutex7TryLockEv:
 183              	.LFB62:
 184              		.loc 1 49 0
 185              		.cfi_startproc
 186              		@ args = 0, pretend = 0, frame = 0
 187              		@ frame_needed = 0, uses_anonymous_args = 0
 188              	.LVL18:
 189 0000 38B5     		push	{r3, r4, r5, lr}
 190              		.cfi_def_cfa_offset 16
 191              		.cfi_offset 3, -16
 192              		.cfi_offset 4, -12
 193              		.cfi_offset 5, -8
 194              		.cfi_offset 14, -4
 195              		.loc 1 50 0
 196 0002 0378     		ldrb	r3, [r0]	@ zero_extendqisi2
 197 0004 03F0FF04 		and	r4, r3, #255
 198 0008 73B9     		cbnz	r3, .L19
 199 000a 0546     		mov	r5, r0
 200              		.loc 1 51 0
 201 000c FFF7FEFF 		bl	_ZN2OS15__enterCriticalEv
 202              	.LVL19:
 203              		.loc 1 52 0
 204 0010 2B78     		ldrb	r3, [r5]	@ zero_extendqisi2
 205 0012 13F0FF0F 		tst	r3, #255
 206 0016 02D0     		beq	.L18
 207              		.loc 1 53 0
 208 0018 FFF7FEFF 		bl	_ZN2OS14__exitCriticalEv
 209              	.LVL20:
 210              		.loc 1 54 0
 211 001c 05E0     		b	.L17
 212              	.L18:
 213              		.loc 1 56 0
 214 001e 0124     		movs	r4, #1
 215 0020 2C70     		strb	r4, [r5]
 216              		.loc 1 57 0
 217 0022 FFF7FEFF 		bl	_ZN2OS14__exitCriticalEv
 218              	.LVL21:
 219              		.loc 1 58 0
 220 0026 00E0     		b	.L17
 221              	.LVL22:
 222              	.L19:
 223              		.loc 1 50 0
 224 0028 0024     		movs	r4, #0
 225              	.LVL23:
 226              	.L17:
 227              		.loc 1 60 0
 228 002a 2046     		mov	r0, r4
 229 002c 38BD     		pop	{r3, r4, r5, pc}
 230              		.cfi_endproc
 231              	.LFE62:
 232              		.size	_ZN2OS5Mutex7TryLockEv, .-_ZN2OS5Mutex7TryLockEv
 233 002e 00BF     		.section	.text._ZN2OS5Mutex7ReleaseEv,"ax",%progbits
 234              		.align	2
 235              		.global	_ZN2OS5Mutex7ReleaseEv
 236              		.thumb
 237              		.thumb_func
 238              		.type	_ZN2OS5Mutex7ReleaseEv, %function
 239              	_ZN2OS5Mutex7ReleaseEv:
 240              	.LFB63:
 241              		.loc 1 62 0
 242              		.cfi_startproc
 243              		@ args = 0, pretend = 0, frame = 0
 244              		@ frame_needed = 0, uses_anonymous_args = 0
 245              		@ link register save eliminated.
 246              	.LVL24:
 247              		.loc 1 63 0
 248 0000 0023     		movs	r3, #0
 249 0002 0370     		strb	r3, [r0]
 250 0004 7047     		bx	lr
 251              		.cfi_endproc
 252              	.LFE63:
 253              		.size	_ZN2OS5Mutex7ReleaseEv, .-_ZN2OS5Mutex7ReleaseEv
 254 0006 00BF     		.section	.text._ZN2OS5Mutex7ReleaseEPS0_,"ax",%progbits
 255              		.align	2
 256              		.global	_ZN2OS5Mutex7ReleaseEPS0_
 257              		.thumb
 258              		.thumb_func
 259              		.type	_ZN2OS5Mutex7ReleaseEPS0_, %function
 260              	_ZN2OS5Mutex7ReleaseEPS0_:
 261              	.LFB64:
 262              		.loc 1 66 0
 263              		.cfi_startproc
 264              		@ args = 0, pretend = 0, frame = 0
 265              		@ frame_needed = 0, uses_anonymous_args = 0
 266              		@ link register save eliminated.
 267              	.LVL25:
 268              		.loc 1 67 0
 269 0000 0023     		movs	r3, #0
 270 0002 0370     		strb	r3, [r0]
 271 0004 7047     		bx	lr
 272              		.cfi_endproc
 273              	.LFE64:
 274              		.size	_ZN2OS5Mutex7ReleaseEPS0_, .-_ZN2OS5Mutex7ReleaseEPS0_
 275 0006 00BF     		.text
 276              	.Letext0:
 277              		.file 2 "c:\\program files (x86)\\gnu tools arm embedded\\4.9 2015q1\\lib\\gcc\\arm-none-eabi\\4.9
 278              		.file 3 "../include/os/mutex.h"
 279              		.file 4 "../include/os.h"
 280              		.file 5 "../system/include/cmsis/stm32f10x.h"
 281              		.file 6 "../system/include/cmsis/core_cm3.h"