   1              		.syntax unified
   2              		.cpu cortex-m3
   3              		.fpu softvfp
   4              		.eabi_attribute 20, 1
   5              		.eabi_attribute 21, 1
   6              		.eabi_attribute 23, 3
   7              		.eabi_attribute 24, 1
   8              		.eabi_attribute 25, 1
   9              		.eabi_attribute 26, 1
  10              		.eabi_attribute 30, 1
  11              		.eabi_attribute 34, 1
  12              		.eabi_attribute 18, 4
  13              		.thumb
  14              		.file	"os.cpp"
  15              		.text
  16              	.Ltext0:
  17              		.cfi_sections	.debug_frame
  18              		.section	.text._CallTask,"ax",%progbits
  19              		.align	2
  20              		.global	_CallTask
  21              		.thumb
  22              		.thumb_func
  23              		.type	_CallTask, %function
  24              	_CallTask:
  25              	.LFB63:
  26              		.file 1 "../src/os.cpp"
  27              		.loc 1 29 0
  28              		.cfi_startproc
  29              		@ args = 0, pretend = 0, frame = 0
  30              		@ frame_needed = 0, uses_anonymous_args = 0
  31              	.LVL0:
  32 0000 38B5     		push	{r3, r4, r5, lr}
  33              		.cfi_def_cfa_offset 16
  34              		.cfi_offset 3, -16
  35              		.cfi_offset 4, -12
  36              		.cfi_offset 5, -8
  37              		.cfi_offset 14, -4
  38 0002 0546     		mov	r5, r0
  39 0004 1446     		mov	r4, r2
  40              	.LVL1:
  41              	.LBB19:
  42              	.LBB20:
  43              	.LBB21:
  44              		.file 2 "../include/os/task.h"
  45              		.loc 2 20 0
  46 0006 0123     		movs	r3, #1
  47 0008 1375     		strb	r3, [r2, #20]
  48 000a 5375     		strb	r3, [r2, #21]
  49              	.LVL2:
  50              	.LBE21:
  51              	.LBE20:
  52              		.loc 1 32 0
  53 000c 0846     		mov	r0, r1
  54              	.LVL3:
  55 000e A847     		blx	r5
  56              	.LVL4:
  57              	.LBB22:
  58              	.LBB23:
  59              		.loc 2 22 0
  60 0010 0023     		movs	r3, #0
  61 0012 2375     		strb	r3, [r4, #20]
  62 0014 2061     		str	r0, [r4, #16]
  63              	.L2:
  64              	.LBE23:
  65              	.LBE22:
  66              		.loc 1 35 0 discriminator 1
  67 0016 4FF08052 		mov	r2, #268435456
  68 001a 014B     		ldr	r3, .L4
  69 001c 5A60     		str	r2, [r3, #4]
  70 001e FAE7     		b	.L2
  71              	.L5:
  72              		.align	2
  73              	.L4:
  74 0020 00ED00E0 		.word	-536810240
  75              	.LBE19:
  76              		.cfi_endproc
  77              	.LFE63:
  78              		.size	_CallTask, .-_CallTask
  79              		.section	.text._ZN2OSL9RunKernelEv,"ax",%progbits
  80              		.align	2
  81              		.thumb
  82              		.thumb_func
  83              		.type	_ZN2OSL9RunKernelEv, %function
  84              	_ZN2OSL9RunKernelEv:
  85              	.LFB72:
  86              		.loc 1 91 0
  87              		.cfi_startproc
  88              		@ Volatile: function does not return.
  89              		@ args = 0, pretend = 0, frame = 0
  90              		@ frame_needed = 0, uses_anonymous_args = 0
  91 0000 08B5     		push	{r3, lr}
  92              		.cfi_def_cfa_offset 8
  93              		.cfi_offset 3, -8
  94              		.cfi_offset 14, -4
  95              	.L7:
  96              	.LBB24:
  97              	.LBB25:
  98              		.loc 1 50 0 discriminator 1
  99 0002 4FF08052 		mov	r2, #268435456
 100 0006 024B     		ldr	r3, .L9
 101 0008 5A60     		str	r2, [r3, #4]
 102              	.LBE25:
 103              	.LBE24:
 104              		.loc 1 95 0 discriminator 1
 105 000a FFF7FEFF 		bl	_boot_load
 106              	.LVL5:
 107              		.loc 1 91 0 discriminator 1
 108 000e F8E7     		b	.L7
 109              	.L10:
 110              		.align	2
 111              	.L9:
 112 0010 00ED00E0 		.word	-536810240
 113              		.cfi_endproc
 114              	.LFE72:
 115              		.size	_ZN2OSL9RunKernelEv, .-_ZN2OSL9RunKernelEv
 116              		.section	.text._isInKernel,"ax",%progbits
 117              		.align	2
 118              		.global	_isInKernel
 119              		.thumb
 120              		.thumb_func
 121              		.type	_isInKernel, %function
 122              	_isInKernel:
 123              	.LFB61:
 124              		.loc 1 20 0
 125              		.cfi_startproc
 126              		@ args = 0, pretend = 0, frame = 0
 127              		@ frame_needed = 0, uses_anonymous_args = 0
 128              		@ link register save eliminated.
 129              		.loc 1 22 0
 130 0000 014B     		ldr	r3, .L12
 131 0002 1878     		ldrb	r0, [r3]	@ zero_extendqisi2
 132 0004 7047     		bx	lr
 133              	.L13:
 134 0006 00BF     		.align	2
 135              	.L12:
 136 0008 00000000 		.word	.LANCHOR0
 137              		.cfi_endproc
 138              	.LFE61:
 139              		.size	_isInKernel, .-_isInKernel
 140              		.section	.text._toggleKernel,"ax",%progbits
 141              		.align	2
 142              		.global	_toggleKernel
 143              		.thumb
 144              		.thumb_func
 145              		.type	_toggleKernel, %function
 146              	_toggleKernel:
 147              	.LFB62:
 148              		.loc 1 24 0
 149              		.cfi_startproc
 150              		@ args = 0, pretend = 0, frame = 0
 151              		@ frame_needed = 0, uses_anonymous_args = 0
 152              		@ link register save eliminated.
 153              		.loc 1 25 0
 154 0000 064B     		ldr	r3, .L18
 155 0002 1878     		ldrb	r0, [r3]	@ zero_extendqisi2
 156 0004 18B1     		cbz	r0, .L16
 157              		.loc 1 25 0 is_stmt 0 discriminator 2
 158 0006 064B     		ldr	r3, .L18+4
 159 0008 1B68     		ldr	r3, [r3]
 160 000a 13B9     		cbnz	r3, .L17
 161 000c 02E0     		b	.L15
 162              	.L16:
 163              		.loc 1 25 0
 164 000e 0120     		movs	r0, #1
 165 0010 00E0     		b	.L15
 166              	.L17:
 167 0012 0020     		movs	r0, #0
 168              	.L15:
 169              		.loc 1 25 0 discriminator 6
 170 0014 014B     		ldr	r3, .L18
 171 0016 1870     		strb	r0, [r3]
 172              		.loc 1 27 0 is_stmt 1 discriminator 6
 173 0018 7047     		bx	lr
 174              	.L19:
 175 001a 00BF     		.align	2
 176              	.L18:
 177 001c 00000000 		.word	.LANCHOR0
 178 0020 00000000 		.word	.LANCHOR1
 179              		.cfi_endproc
 180              	.LFE62:
 181              		.size	_toggleKernel, .-_toggleKernel
 182              		.section	.text._ZN2OS4InitEv,"ax",%progbits
 183              		.align	2
 184              		.global	_ZN2OS4InitEv
 185              		.thumb
 186              		.thumb_func
 187              		.type	_ZN2OS4InitEv, %function
 188              	_ZN2OS4InitEv:
 189              	.LFB64:
 190              		.loc 1 43 0
 191              		.cfi_startproc
 192              		@ Volatile: function does not return.
 193              		@ args = 0, pretend = 0, frame = 0
 194              		@ frame_needed = 0, uses_anonymous_args = 0
 195 0000 08B5     		push	{r3, lr}
 196              		.cfi_def_cfa_offset 8
 197              		.cfi_offset 3, -8
 198              		.cfi_offset 14, -4
 199              	.LBB26:
 200              	.LBB27:
 201              		.file 3 "../system/include/cmsis/core_cmFunc.h"
 202              		.loc 3 319 0
 203              	@ 319 "../system/include/cmsis/core_cmFunc.h" 1
 204 0002 62B6     		cpsie i
 205              	@ 0 "" 2
 206              		.thumb
 207              	.LBE27:
 208              	.LBE26:
 209              		.loc 1 45 0
 210 0004 0A4B     		ldr	r3, .L23
 211 0006 1B68     		ldr	r3, [r3]
 212 0008 0A4A     		ldr	r2, .L23+4
 213 000a A2FB0323 		umull	r2, r3, r2, r3
 214 000e 5B0B     		lsrs	r3, r3, #13
 215              	.LVL6:
 216              	.LBB28:
 217              	.LBB29:
 218              		.file 4 "../system/include/cmsis/core_cm3.h"
 219              		.loc 4 1553 0
 220 0010 013B     		subs	r3, r3, #1
 221              	.LVL7:
 222 0012 B3F1807F 		cmp	r3, #16777216
 223 0016 09D2     		bcs	.L21
 224              		.loc 4 1555 0
 225 0018 074A     		ldr	r2, .L23+8
 226 001a 5360     		str	r3, [r2, #4]
 227              	.LVL8:
 228              	.LBB30:
 229              	.LBB31:
 230              		.loc 4 1427 0
 231 001c F021     		movs	r1, #240
 232 001e 074B     		ldr	r3, .L23+12
 233              	.LVL9:
 234 0020 83F82310 		strb	r1, [r3, #35]
 235              	.LVL10:
 236              	.LBE31:
 237              	.LBE30:
 238              		.loc 4 1557 0
 239 0024 0023     		movs	r3, #0
 240 0026 9360     		str	r3, [r2, #8]
 241              		.loc 4 1560 0
 242 0028 0723     		movs	r3, #7
 243 002a 1360     		str	r3, [r2]
 244              	.LVL11:
 245              	.L21:
 246              	.LBE29:
 247              	.LBE28:
 248              		.loc 1 46 0
 249 002c FFF7FEFF 		bl	_ZN2OSL9RunKernelEv
 250              	.LVL12:
 251              	.L24:
 252              		.align	2
 253              	.L23:
 254 0030 00000000 		.word	SystemCoreClock
 255 0034 5917B7D1 		.word	-776530087
 256 0038 10E000E0 		.word	-536813552
 257 003c 00ED00E0 		.word	-536810240
 258              		.cfi_endproc
 259              	.LFE64:
 260              		.size	_ZN2OS4InitEv, .-_ZN2OS4InitEv
 261              		.section	.text._ZN2OS8SetErrorEPc,"ax",%progbits
 262              		.align	2
 263              		.global	_ZN2OS8SetErrorEPc
 264              		.thumb
 265              		.thumb_func
 266              		.type	_ZN2OS8SetErrorEPc, %function
 267              	_ZN2OS8SetErrorEPc:
 268              	.LFB66:
 269              		.loc 1 53 0
 270              		.cfi_startproc
 271              		@ args = 0, pretend = 0, frame = 0
 272              		@ frame_needed = 0, uses_anonymous_args = 0
 273              		@ link register save eliminated.
 274 0000 7047     		bx	lr
 275              		.cfi_endproc
 276              	.LFE66:
 277              		.size	_ZN2OS8SetErrorEPc, .-_ZN2OS8SetErrorEPc
 278 0002 00BF     		.section	.text._ZN2OS8GetErrorEv,"ax",%progbits
 279              		.align	2
 280              		.global	_ZN2OS8GetErrorEv
 281              		.thumb
 282              		.thumb_func
 283              		.type	_ZN2OS8GetErrorEv, %function
 284              	_ZN2OS8GetErrorEv:
 285              	.LFB67:
 286              		.loc 1 57 0
 287              		.cfi_startproc
 288              		@ args = 0, pretend = 0, frame = 0
 289              		@ frame_needed = 0, uses_anonymous_args = 0
 290              		@ link register save eliminated.
 291              		.loc 1 59 0
 292 0000 0020     		movs	r0, #0
 293 0002 7047     		bx	lr
 294              		.cfi_endproc
 295              	.LFE67:
 296              		.size	_ZN2OS8GetErrorEv, .-_ZN2OS8GetErrorEv
 297              		.section	.text._ZN2OS11SystemTicksEv,"ax",%progbits
 298              		.align	2
 299              		.global	_ZN2OS11SystemTicksEv
 300              		.thumb
 301              		.thumb_func
 302              		.type	_ZN2OS11SystemTicksEv, %function
 303              	_ZN2OS11SystemTicksEv:
 304              	.LFB68:
 305              		.loc 1 61 0
 306              		.cfi_startproc
 307              		@ args = 0, pretend = 0, frame = 0
 308              		@ frame_needed = 0, uses_anonymous_args = 0
 309              		@ link register save eliminated.
 310              		.loc 1 63 0
 311 0000 014B     		ldr	r3, .L28
 312 0002 1868     		ldr	r0, [r3]
 313 0004 7047     		bx	lr
 314              	.L29:
 315 0006 00BF     		.align	2
 316              	.L28:
 317 0008 00000000 		.word	.LANCHOR2
 318              		.cfi_endproc
 319              	.LFE68:
 320              		.size	_ZN2OS11SystemTicksEv, .-_ZN2OS11SystemTicksEv
 321              		.section	.text._ZN2OS10_StartTaskEPFimEmPmi,"ax",%progbits
 322              		.align	2
 323              		.global	_ZN2OS10_StartTaskEPFimEmPmi
 324              		.thumb
 325              		.thumb_func
 326              		.type	_ZN2OS10_StartTaskEPFimEmPmi, %function
 327              	_ZN2OS10_StartTaskEPFimEmPmi:
 328              	.LFB71:
 329              		.loc 1 72 0
 330              		.cfi_startproc
 331              		@ args = 0, pretend = 0, frame = 0
 332              		@ frame_needed = 0, uses_anonymous_args = 0
 333              		@ link register save eliminated.
 334              	.LVL13:
 335              	.LBB32:
 336              		.loc 1 74 0
 337 0000 03F18043 		add	r3, r3, #1073741824
 338              	.LVL14:
 339 0004 103B     		subs	r3, r3, #16
 340              	.LVL15:
 341 0006 02EB8302 		add	r2, r2, r3, lsl #2
 342              	.LVL16:
 343              		.loc 1 78 0
 344 000a 1062     		str	r0, [r2, #32]
 345              		.loc 1 80 0
 346 000c 5162     		str	r1, [r2, #36]
 347              		.loc 1 82 0
 348 000e 0023     		movs	r3, #0
 349              	.LVL17:
 350 0010 9362     		str	r3, [r2, #40]
 351              		.loc 1 84 0
 352 0012 054B     		ldr	r3, .L31
 353 0014 9363     		str	r3, [r2, #56]
 354              		.loc 1 86 0
 355 0016 4FF00453 		mov	r3, #553648128
 356 001a D363     		str	r3, [r2, #60]
 357              		.loc 1 87 0
 358 001c 034A     		ldr	r2, .L31+4
 359              	.LVL18:
 360 001e 1368     		ldr	r3, [r2]
 361 0020 0133     		adds	r3, r3, #1
 362 0022 1360     		str	r3, [r2]
 363 0024 7047     		bx	lr
 364              	.L32:
 365 0026 00BF     		.align	2
 366              	.L31:
 367 0028 00000000 		.word	_CallTask
 368 002c 00000000 		.word	.LANCHOR1
 369              	.LBE32:
 370              		.cfi_endproc
 371              	.LFE71:
 372              		.size	_ZN2OS10_StartTaskEPFimEmPmi, .-_ZN2OS10_StartTaskEPFimEmPmi
 373              		.section	.text.SysTick_Handler,"ax",%progbits
 374              		.align	2
 375              		.global	SysTick_Handler
 376              		.thumb
 377              		.thumb_func
 378              		.type	SysTick_Handler, %function
 379              	SysTick_Handler:
 380              	.LFB73:
 381              		.loc 1 104 0
 382              		.cfi_startproc
 383              		@ args = 0, pretend = 0, frame = 0
 384              		@ frame_needed = 0, uses_anonymous_args = 0
 385              		@ link register save eliminated.
 386              		.loc 1 106 0
 387 0000 044A     		ldr	r2, .L34
 388 0002 1368     		ldr	r3, [r2]
 389 0004 0133     		adds	r3, r3, #1
 390 0006 1360     		str	r3, [r2]
 391              	.LBB33:
 392              	.LBB34:
 393              		.loc 1 50 0
 394 0008 4FF08052 		mov	r2, #268435456
 395 000c 024B     		ldr	r3, .L34+4
 396 000e 5A60     		str	r2, [r3, #4]
 397 0010 7047     		bx	lr
 398              	.L35:
 399 0012 00BF     		.align	2
 400              	.L34:
 401 0014 00000000 		.word	.LANCHOR2
 402 0018 00ED00E0 		.word	-536810240
 403              	.LBE34:
 404              	.LBE33:
 405              		.cfi_endproc
 406              	.LFE73:
 407              		.size	SysTick_Handler, .-SysTick_Handler
 408              		.global	_taskCount
 409              		.global	_inKernel
 410              		.section	.bss._ZN2OSL5_timeE,"aw",%nobits
 411              		.align	2
 412              		.set	.LANCHOR2,. + 0
 413              		.type	_ZN2OSL5_timeE, %object
 414              		.size	_ZN2OSL5_timeE, 4
 415              	_ZN2OSL5_timeE:
 416 0000 00000000 		.space	4
 417              		.section	.data._inKernel,"aw",%progbits
 418              		.set	.LANCHOR0,. + 0
 419              		.type	_inKernel, %object
 420              		.size	_inKernel, 1
 421              	_inKernel:
 422 0000 01       		.byte	1
 423              		.section	.bss._taskCount,"aw",%nobits
 424              		.align	2
 425              		.set	.LANCHOR1,. + 0
 426              		.type	_taskCount, %object
 427              		.size	_taskCount, 4
 428              	_taskCount:
 429 0000 00000000 		.space	4
 430              		.text
 431              	.Letext0:
 432              		.file 5 "../system/include/cmsis/stm32f10x.h"
 433              		.file 6 "c:\\program files (x86)\\gnu tools arm embedded\\4.9 2015q1\\lib\\gcc\\arm-none-eabi\\4.9
 434              		.file 7 "../include/types.h"
 435              		.file 8 "../include/os.h"
 436              		.file 9 "../system/include/cmsis/system_stm32f10x.h"
 437              		.file 10 "../system/include/newlib/_boot.h"