   1              		.syntax unified
   2              		.cpu cortex-m3
   3              		.fpu softvfp
   4              		.eabi_attribute 20, 1
   5              		.eabi_attribute 21, 1
   6              		.eabi_attribute 23, 3
   7              		.eabi_attribute 24, 1
   8              		.eabi_attribute 25, 1
   9              		.eabi_attribute 26, 1
  10              		.eabi_attribute 30, 1
  11              		.eabi_attribute 34, 1
  12              		.eabi_attribute 18, 4
  13              		.thumb
  14              		.file	"os_dbg.cpp"
  15              		.text
  16              	.Ltext0:
  17              		.cfi_sections	.debug_frame
  18              		.section	.text.toggleKernel,"ax",%progbits
  19              		.align	2
  20              		.global	toggleKernel
  21              		.thumb
  22              		.thumb_func
  23              		.type	toggleKernel, %function
  24              	toggleKernel:
  25              	.LFB56:
  26              		.file 1 "../src/os_dbg.cpp"
  27              		.loc 1 27 0
  28              		.cfi_startproc
  29              		@ args = 0, pretend = 0, frame = 0
  30              		@ frame_needed = 0, uses_anonymous_args = 0
  31              		@ link register save eliminated.
  32              		.loc 1 29 0
  33 0000 064B     		ldr	r3, .L5
  34 0002 1B68     		ldr	r3, [r3]
  35 0004 23B1     		cbz	r3, .L3
  36              		.loc 1 29 0 is_stmt 0 discriminator 2
  37 0006 064B     		ldr	r3, .L5+4
  38 0008 1B78     		ldrb	r3, [r3]	@ zero_extendqisi2
  39 000a 1BB9     		cbnz	r3, .L4
  40              		.loc 1 29 0
  41 000c 0120     		movs	r0, #1
  42 000e 02E0     		b	.L2
  43              	.L3:
  44 0010 0120     		movs	r0, #1
  45 0012 00E0     		b	.L2
  46              	.L4:
  47 0014 0020     		movs	r0, #0
  48              	.L2:
  49              		.loc 1 29 0 discriminator 6
  50 0016 024B     		ldr	r3, .L5+4
  51 0018 1870     		strb	r0, [r3]
  52              		.loc 1 31 0 is_stmt 1 discriminator 6
  53 001a 7047     		bx	lr
  54              	.L6:
  55              		.align	2
  56              	.L5:
  57 001c 00000000 		.word	.LANCHOR0
  58 0020 00000000 		.word	.LANCHOR1
  59              		.cfi_endproc
  60              	.LFE56:
  61              		.size	toggleKernel, .-toggleKernel
  62              		.section	.text.isInKernel,"ax",%progbits
  63              		.align	2
  64              		.global	isInKernel
  65              		.thumb
  66              		.thumb_func
  67              		.type	isInKernel, %function
  68              	isInKernel:
  69              	.LFB57:
  70              		.loc 1 33 0
  71              		.cfi_startproc
  72              		@ args = 0, pretend = 0, frame = 0
  73              		@ frame_needed = 0, uses_anonymous_args = 0
  74              		@ link register save eliminated.
  75              		.loc 1 36 0
  76 0000 014B     		ldr	r3, .L8
  77 0002 1878     		ldrb	r0, [r3]	@ zero_extendqisi2
  78 0004 7047     		bx	lr
  79              	.L9:
  80 0006 00BF     		.align	2
  81              	.L8:
  82 0008 00000000 		.word	.LANCHOR1
  83              		.cfi_endproc
  84              	.LFE57:
  85              		.size	isInKernel, .-isInKernel
  86              		.section	.text._Z5PrintPKc,"ax",%progbits
  87              		.align	2
  88              		.global	_Z5PrintPKc
  89              		.thumb
  90              		.thumb_func
  91              		.type	_Z5PrintPKc, %function
  92              	_Z5PrintPKc:
  93              	.LFB58:
  94              		.loc 1 38 0
  95              		.cfi_startproc
  96              		@ args = 0, pretend = 0, frame = 0
  97              		@ frame_needed = 0, uses_anonymous_args = 0
  98              	.LVL0:
  99 0000 38B5     		push	{r3, r4, r5, lr}
 100              		.cfi_def_cfa_offset 16
 101              		.cfi_offset 3, -16
 102              		.cfi_offset 4, -12
 103              		.cfi_offset 5, -8
 104              		.cfi_offset 14, -4
 105 0002 0446     		mov	r4, r0
 106              		.loc 1 39 0
 107 0004 044B     		ldr	r3, .L12
 108 0006 1D68     		ldr	r5, [r3]
 109 0008 FFF7FEFF 		bl	strlen
 110              	.LVL1:
 111 000c 0246     		mov	r2, r0
 112 000e 2846     		mov	r0, r5
 113 0010 2146     		mov	r1, r4
 114 0012 FFF7FEFF 		bl	_ZN4Uart12WriteIsrSafeEPvi
 115              	.LVL2:
 116 0016 38BD     		pop	{r3, r4, r5, pc}
 117              	.LVL3:
 118              	.L13:
 119              		.align	2
 120              	.L12:
 121 0018 00000000 		.word	.LANCHOR2
 122              		.cfi_endproc
 123              	.LFE58:
 124              		.size	_Z5PrintPKc, .-_Z5PrintPKc
 125              		.section	.text.WriteHex32,"ax",%progbits
 126              		.align	2
 127              		.global	WriteHex32
 128              		.thumb
 129              		.thumb_func
 130              		.type	WriteHex32, %function
 131              	WriteHex32:
 132              	.LFB59:
 133              		.loc 1 42 0
 134              		.cfi_startproc
 135              		@ args = 0, pretend = 0, frame = 0
 136              		@ frame_needed = 0, uses_anonymous_args = 0
 137              	.LVL4:
 138 0000 08B5     		push	{r3, lr}
 139              		.cfi_def_cfa_offset 8
 140              		.cfi_offset 3, -8
 141              		.cfi_offset 14, -4
 142 0002 0146     		mov	r1, r0
 143              		.loc 1 43 0
 144 0004 034B     		ldr	r3, .L16
 145 0006 1868     		ldr	r0, [r3]
 146              	.LVL5:
 147 0008 0822     		movs	r2, #8
 148 000a 0123     		movs	r3, #1
 149 000c FFF7FEFF 		bl	_ZN4Uart8WriteHexEmib
 150              	.LVL6:
 151 0010 08BD     		pop	{r3, pc}
 152              	.L17:
 153 0012 00BF     		.align	2
 154              	.L16:
 155 0014 00000000 		.word	.LANCHOR2
 156              		.cfi_endproc
 157              	.LFE59:
 158              		.size	WriteHex32, .-WriteHex32
 159              		.section	.text.WriteLine,"ax",%progbits
 160              		.align	2
 161              		.global	WriteLine
 162              		.thumb
 163              		.thumb_func
 164              		.type	WriteLine, %function
 165              	WriteLine:
 166              	.LFB60:
 167              		.loc 1 46 0
 168              		.cfi_startproc
 169              		@ args = 0, pretend = 0, frame = 0
 170              		@ frame_needed = 0, uses_anonymous_args = 0
 171 0000 08B5     		push	{r3, lr}
 172              		.cfi_def_cfa_offset 8
 173              		.cfi_offset 3, -8
 174              		.cfi_offset 14, -4
 175              		.loc 1 47 0
 176 0002 034B     		ldr	r3, .L20
 177 0004 1868     		ldr	r0, [r3]
 178 0006 0349     		ldr	r1, .L20+4
 179 0008 0222     		movs	r2, #2
 180 000a FFF7FEFF 		bl	_ZN4Uart12WriteIsrSafeEPvi
 181              	.LVL7:
 182 000e 08BD     		pop	{r3, pc}
 183              	.L21:
 184              		.align	2
 185              	.L20:
 186 0010 00000000 		.word	.LANCHOR2
 187 0014 00000000 		.word	.LC0
 188              		.cfi_endproc
 189              	.LFE60:
 190              		.size	WriteLine, .-WriteLine
 191              		.section	.text.CallTask,"ax",%progbits
 192              		.align	2
 193              		.global	CallTask
 194              		.thumb
 195              		.thumb_func
 196              		.type	CallTask, %function
 197              	CallTask:
 198              	.LFB61:
 199              		.loc 1 50 0
 200              		.cfi_startproc
 201              		@ args = 0, pretend = 0, frame = 0
 202              		@ frame_needed = 0, uses_anonymous_args = 0
 203              	.LVL8:
 204 0000 70B5     		push	{r4, r5, r6, lr}
 205              		.cfi_def_cfa_offset 16
 206              		.cfi_offset 4, -16
 207              		.cfi_offset 5, -12
 208              		.cfi_offset 6, -8
 209              		.cfi_offset 14, -4
 210 0002 0446     		mov	r4, r0
 211 0004 0D46     		mov	r5, r1
 212 0006 1646     		mov	r6, r2
 213              	.LBB9:
 214              		.loc 1 51 0
 215 0008 1148     		ldr	r0, .L25
 216              	.LVL9:
 217 000a FFF7FEFF 		bl	_Z5PrintPKc
 218              	.LVL10:
 219              		.loc 1 52 0
 220 000e 2046     		mov	r0, r4
 221 0010 FFF7FEFF 		bl	WriteHex32
 222              	.LVL11:
 223              		.loc 1 53 0
 224 0014 FFF7FEFF 		bl	WriteLine
 225              	.LVL12:
 226              		.loc 1 54 0
 227 0018 2846     		mov	r0, r5
 228 001a FFF7FEFF 		bl	WriteHex32
 229              	.LVL13:
 230              		.loc 1 55 0
 231 001e FFF7FEFF 		bl	WriteLine
 232              	.LVL14:
 233              		.loc 1 56 0
 234 0022 3046     		mov	r0, r6
 235 0024 FFF7FEFF 		bl	WriteHex32
 236              	.LVL15:
 237              		.loc 1 57 0
 238 0028 FFF7FEFF 		bl	WriteLine
 239              	.LVL16:
 240              		.loc 1 58 0
 241 002c FFF7FEFF 		bl	WriteLine
 242              	.LVL17:
 243              		.loc 1 60 0
 244 0030 2846     		mov	r0, r5
 245 0032 A047     		blx	r4
 246              	.LVL18:
 247 0034 0446     		mov	r4, r0
 248              	.LVL19:
 249              		.loc 1 61 0
 250 0036 0748     		ldr	r0, .L25+4
 251              	.LVL20:
 252 0038 FFF7FEFF 		bl	_Z5PrintPKc
 253              	.LVL21:
 254              		.loc 1 62 0
 255 003c 2046     		mov	r0, r4
 256 003e FFF7FEFF 		bl	WriteHex32
 257              	.LVL22:
 258              		.loc 1 63 0
 259 0042 FFF7FEFF 		bl	WriteLine
 260              	.LVL23:
 261              	.L23:
 262              		.loc 1 64 0 discriminator 1
 263 0046 4FF08052 		mov	r2, #268435456
 264 004a 034B     		ldr	r3, .L25+8
 265 004c 5A60     		str	r2, [r3, #4]
 266 004e FAE7     		b	.L23
 267              	.L26:
 268              		.align	2
 269              	.L25:
 270 0050 04000000 		.word	.LC1
 271 0054 1C000000 		.word	.LC2
 272 0058 00ED00E0 		.word	-536810240
 273              	.LBE9:
 274              		.cfi_endproc
 275              	.LFE61:
 276              		.size	CallTask, .-CallTask
 277              		.section	.text._Z4Testm,"ax",%progbits
 278              		.align	2
 279              		.global	_Z4Testm
 280              		.thumb
 281              		.thumb_func
 282              		.type	_Z4Testm, %function
 283              	_Z4Testm:
 284              	.LFB62:
 285              		.loc 1 67 0
 286              		.cfi_startproc
 287              		@ args = 0, pretend = 0, frame = 8
 288              		@ frame_needed = 0, uses_anonymous_args = 0
 289              	.LVL24:
 290 0000 30B5     		push	{r4, r5, lr}
 291              		.cfi_def_cfa_offset 12
 292              		.cfi_offset 4, -12
 293              		.cfi_offset 5, -8
 294              		.cfi_offset 14, -4
 295 0002 83B0     		sub	sp, sp, #12
 296              		.cfi_def_cfa_offset 24
 297 0004 0546     		mov	r5, r0
 298              	.LVL25:
 299              	.LBB10:
 300              		.loc 1 68 0
 301 0006 0A23     		movs	r3, #10
 302              		.loc 1 69 0
 303 0008 14E0     		b	.L28
 304              	.LVL26:
 305              	.L31:
 306              	.LBB11:
 307              		.loc 1 70 0
 308 000a 0E48     		ldr	r0, .L33
 309 000c FFF7FEFF 		bl	_Z5PrintPKc
 310              	.LVL27:
 311              		.loc 1 71 0
 312 0010 2846     		mov	r0, r5
 313 0012 FFF7FEFF 		bl	WriteHex32
 314              	.LVL28:
 315              		.loc 1 72 0
 316 0016 FFF7FEFF 		bl	WriteLine
 317              	.LVL29:
 318              		.loc 1 73 0
 319 001a 0B4B     		ldr	r3, .L33+4
 320 001c 0193     		str	r3, [sp, #4]
 321              		.loc 1 74 0
 322 001e 03E0     		b	.L29
 323              	.L30:
 324              		.loc 1 74 0 is_stmt 0 discriminator 2
 325 0020 4FF08052 		mov	r2, #268435456
 326 0024 094B     		ldr	r3, .L33+8
 327 0026 5A60     		str	r2, [r3, #4]
 328              	.L29:
 329              		.loc 1 74 0 discriminator 1
 330 0028 019B     		ldr	r3, [sp, #4]
 331 002a 5A1E     		subs	r2, r3, #1
 332 002c 0192     		str	r2, [sp, #4]
 333 002e 002B     		cmp	r3, #0
 334 0030 F6D1     		bne	.L30
 335              	.LBE11:
 336              		.loc 1 69 0 is_stmt 1
 337 0032 2346     		mov	r3, r4
 338              	.LVL30:
 339              	.L28:
 340 0034 5C1E     		subs	r4, r3, #1
 341              	.LVL31:
 342 0036 002B     		cmp	r3, #0
 343 0038 E7D1     		bne	.L31
 344              	.LBE10:
 345              		.loc 1 77 0
 346 003a 4FF0FF30 		mov	r0, #-1
 347 003e 03B0     		add	sp, sp, #12
 348              		.cfi_def_cfa_offset 12
 349              		@ sp needed
 350 0040 30BD     		pop	{r4, r5, pc}
 351              	.LVL32:
 352              	.L34:
 353 0042 00BF     		.align	2
 354              	.L33:
 355 0044 28000000 		.word	.LC3
 356 0048 40420F00 		.word	1000000
 357 004c 00ED00E0 		.word	-536810240
 358              		.cfi_endproc
 359              	.LFE62:
 360              		.size	_Z4Testm, .-_Z4Testm
 361              		.section	.text._Z9StartTaskP9_taskNodePFimEm,"ax",%progbits
 362              		.align	2
 363              		.global	_Z9StartTaskP9_taskNodePFimEm
 364              		.thumb
 365              		.thumb_func
 366              		.type	_Z9StartTaskP9_taskNodePFimEm, %function
 367              	_Z9StartTaskP9_taskNodePFimEm:
 368              	.LFB63:
 369              		.loc 1 79 0
 370              		.cfi_startproc
 371              		@ args = 0, pretend = 0, frame = 0
 372              		@ frame_needed = 0, uses_anonymous_args = 0
 373              	.LVL33:
 374 0000 38B5     		push	{r3, r4, r5, lr}
 375              		.cfi_def_cfa_offset 16
 376              		.cfi_offset 3, -16
 377              		.cfi_offset 4, -12
 378              		.cfi_offset 5, -8
 379              		.cfi_offset 14, -4
 380              	.LBB12:
 381              		.loc 1 80 0
 382 0002 0368     		ldr	r3, [r0]
 383              	.LVL34:
 384              	.LBB13:
 385              	.LBB14:
 386              		.file 2 "../system/include/cmsis/core_cmFunc.h"
 387              		.loc 2 429 0
 388              	@ 429 "../system/include/cmsis/core_cmFunc.h" 1
 389 0004 83F30988 		MSR psp, r3
 390              	
 391              	@ 0 "" 2
 392              		.thumb
 393              	.LBE14:
 394              	.LBE13:
 395              		.loc 1 83 0
 396 0008 03F12005 		add	r5, r3, #32
 397              	.LVL35:
 398              		.loc 1 85 0
 399 000c 1962     		str	r1, [r3, #32]
 400              		.loc 1 87 0
 401 000e 5A62     		str	r2, [r3, #36]
 402              		.loc 1 89 0
 403 0010 9862     		str	r0, [r3, #40]
 404              		.loc 1 91 0
 405 0012 144A     		ldr	r2, .L39
 406              	.LVL36:
 407 0014 9A63     		str	r2, [r3, #56]
 408              		.loc 1 93 0
 409 0016 4FF00452 		mov	r2, #553648128
 410 001a DA63     		str	r2, [r3, #60]
 411              		.loc 1 94 0
 412 001c 124A     		ldr	r2, .L39+4
 413 001e 1368     		ldr	r3, [r2]
 414              	.LVL37:
 415 0020 0133     		adds	r3, r3, #1
 416 0022 1360     		str	r3, [r2]
 417              		.loc 1 96 0
 418 0024 1148     		ldr	r0, .L39+8
 419              	.LVL38:
 420 0026 FFF7FEFF 		bl	_Z5PrintPKc
 421              	.LVL39:
 422              		.loc 1 97 0
 423 002a 2846     		mov	r0, r5
 424 002c FFF7FEFF 		bl	WriteHex32
 425              	.LVL40:
 426              		.loc 1 98 0
 427 0030 FFF7FEFF 		bl	WriteLine
 428              	.LVL41:
 429              	.LBB15:
 430              	.LBB16:
 431              		.loc 2 416 0
 432              	@ 416 "../system/include/cmsis/core_cmFunc.h" 1
 433 0034 EFF30980 		MRS r0, psp
 434              	
 435              	@ 0 "" 2
 436              	.LVL42:
 437              		.thumb
 438              	.LBE16:
 439              	.LBE15:
 440              		.loc 1 99 0
 441 0038 FFF7FEFF 		bl	WriteHex32
 442              	.LVL43:
 443              		.loc 1 100 0
 444 003c FFF7FEFF 		bl	WriteLine
 445              	.LVL44:
 446              		.loc 1 101 0
 447 0040 0B48     		ldr	r0, .L39+12
 448 0042 FFF7FEFF 		bl	_Z5PrintPKc
 449              	.LVL45:
 450              	.LBB17:
 451              		.loc 1 102 0
 452 0046 0024     		movs	r4, #0
 453 0048 06E0     		b	.L36
 454              	.LVL46:
 455              	.L37:
 456              		.loc 1 103 0 discriminator 3
 457 004a 55F82400 		ldr	r0, [r5, r4, lsl #2]
 458 004e FFF7FEFF 		bl	WriteHex32
 459              	.LVL47:
 460              		.loc 1 104 0 discriminator 3
 461 0052 FFF7FEFF 		bl	WriteLine
 462              	.LVL48:
 463              		.loc 1 102 0 discriminator 3
 464 0056 0134     		adds	r4, r4, #1
 465              	.LVL49:
 466              	.L36:
 467              		.loc 1 102 0 is_stmt 0 discriminator 1
 468 0058 072C     		cmp	r4, #7
 469 005a F6DD     		ble	.L37
 470              	.LBE17:
 471              		.loc 1 106 0 is_stmt 1
 472 005c FFF7FEFF 		bl	WriteLine
 473              	.LVL50:
 474 0060 38BD     		pop	{r3, r4, r5, pc}
 475              	.LVL51:
 476              	.L40:
 477 0062 00BF     		.align	2
 478              	.L39:
 479 0064 00000000 		.word	CallTask
 480 0068 00000000 		.word	.LANCHOR0
 481 006c 38000000 		.word	.LC4
 482 0070 3C000000 		.word	.LC5
 483              	.LBE12:
 484              		.cfi_endproc
 485              	.LFE63:
 486              		.size	_Z9StartTaskP9_taskNodePFimEm, .-_Z9StartTaskP9_taskNodePFimEm
 487              		.section	.text._ZN6os_dbg4InitEv,"ax",%progbits
 488              		.align	2
 489              		.global	_ZN6os_dbg4InitEv
 490              		.thumb
 491              		.thumb_func
 492              		.type	_ZN6os_dbg4InitEv, %function
 493              	_ZN6os_dbg4InitEv:
 494              	.LFB64:
 495              		.loc 1 109 0
 496              		.cfi_startproc
 497              		@ args = 0, pretend = 0, frame = 0
 498              		@ frame_needed = 0, uses_anonymous_args = 0
 499 0000 38B5     		push	{r3, r4, r5, lr}
 500              		.cfi_def_cfa_offset 16
 501              		.cfi_offset 3, -16
 502              		.cfi_offset 4, -12
 503              		.cfi_offset 5, -8
 504              		.cfi_offset 14, -4
 505              		.loc 1 110 0
 506 0002 0120     		movs	r0, #1
 507 0004 FFF7FEFF 		bl	_ZN4Uart14GetUartIsrSafeENS_15UART_CONNECTIONE
 508              	.LVL52:
 509 0008 0546     		mov	r5, r0
 510 000a 124B     		ldr	r3, .L43
 511 000c 1860     		str	r0, [r3]
 512              		.loc 1 111 0
 513 000e 124B     		ldr	r3, .L43+4
 514 0010 1C68     		ldr	r4, [r3]
 515 0012 2046     		mov	r0, r4
 516 0014 FFF7FEFF 		bl	strlen
 517              	.LVL53:
 518 0018 0246     		mov	r2, r0
 519 001a 2846     		mov	r0, r5
 520 001c 2146     		mov	r1, r4
 521 001e FFF7FEFF 		bl	_ZN4Uart12WriteIsrSafeEPvi
 522              	.LVL54:
 523              		.loc 1 113 0
 524 0022 0E48     		ldr	r0, .L43+8
 525 0024 FFF7FEFF 		bl	_Z5PrintPKc
 526              	.LVL55:
 527              		.loc 1 114 0
 528 0028 0D4C     		ldr	r4, .L43+12
 529 002a 4FF08055 		mov	r5, #268435456
 530 002e 6560     		str	r5, [r4, #4]
 531              		.loc 1 116 0
 532 0030 0C48     		ldr	r0, .L43+16
 533 0032 FFF7FEFF 		bl	_Z5PrintPKc
 534              	.LVL56:
 535              		.loc 1 117 0
 536 0036 0C48     		ldr	r0, .L43+20
 537 0038 0C4B     		ldr	r3, .L43+24
 538 003a 0360     		str	r3, [r0]
 539              		.loc 1 118 0
 540 003c 0C49     		ldr	r1, .L43+28
 541 003e 0022     		movs	r2, #0
 542 0040 FFF7FEFF 		bl	_Z9StartTaskP9_taskNodePFimEm
 543              	.LVL57:
 544              		.loc 1 120 0
 545 0044 0B48     		ldr	r0, .L43+32
 546 0046 FFF7FEFF 		bl	_Z5PrintPKc
 547              	.LVL58:
 548              		.loc 1 121 0
 549 004a 6560     		str	r5, [r4, #4]
 550              		.loc 1 122 0
 551 004c 0A48     		ldr	r0, .L43+36
 552 004e FFF7FEFF 		bl	_Z5PrintPKc
 553              	.LVL59:
 554 0052 38BD     		pop	{r3, r4, r5, pc}
 555              	.L44:
 556              		.align	2
 557              	.L43:
 558 0054 00000000 		.word	.LANCHOR2
 559 0058 00000000 		.word	.LANCHOR3
 560 005c 5C000000 		.word	.LC6
 561 0060 00ED00E0 		.word	-536810240
 562 0064 7C000000 		.word	.LC7
 563 0068 00000000 		.word	.LANCHOR4
 564 006c 88000000 		.word	.LANCHOR5+136
 565 0070 00000000 		.word	_Z4Testm
 566 0074 94000000 		.word	.LC8
 567 0078 A8000000 		.word	.LC9
 568              		.cfi_endproc
 569              	.LFE64:
 570              		.size	_ZN6os_dbg4InitEv, .-_ZN6os_dbg4InitEv
 571              		.global	testTask
 572              		.global	testStack
 573              		.global	taskCount
 574              		.global	inKernel
 575              		.global	uart2
 576              		.global	startMessage
 577              		.section	.bss.uart2,"aw",%nobits
 578              		.align	2
 579              		.set	.LANCHOR2,. + 0
 580              		.type	uart2, %object
 581              		.size	uart2, 4
 582              	uart2:
 583 0000 00000000 		.space	4
 584              		.section	.data.startMessage,"aw",%progbits
 585              		.align	2
 586              		.set	.LANCHOR3,. + 0
 587              		.type	startMessage, %object
 588              		.size	startMessage, 4
 589              	startMessage:
 590 0000 BC000000 		.word	.LC10
 591              		.section	.bss.testStack,"aw",%nobits
 592              		.align	2
 593              		.set	.LANCHOR5,. + 0
 594              		.type	testStack, %object
 595              		.size	testStack, 200
 596              	testStack:
 597 0000 00000000 		.space	200
 597      00000000 
 597      00000000 
 597      00000000 
 597      00000000 
 598              		.section	.bss.testTask,"aw",%nobits
 599              		.align	2
 600              		.set	.LANCHOR4,. + 0
 601              		.type	testTask, %object
 602              		.size	testTask, 8
 603              	testTask:
 604 0000 00000000 		.space	8
 604      00000000 
 605              		.section	.bss.taskCount,"aw",%nobits
 606              		.align	2
 607              		.set	.LANCHOR0,. + 0
 608              		.type	taskCount, %object
 609              		.size	taskCount, 4
 610              	taskCount:
 611 0000 00000000 		.space	4
 612              		.section	.data.inKernel,"aw",%progbits
 613              		.set	.LANCHOR1,. + 0
 614              		.type	inKernel, %object
 615              		.size	inKernel, 1
 616              	inKernel:
 617 0000 01       		.byte	1
 618              		.section	.rodata.str1.4,"aMS",%progbits,1
 619              		.align	2
 620              	.LC0:
 621 0000 0D0A00   		.ascii	"\015\012\000"
 622 0003 00       		.space	1
 623              	.LC1:
 624 0004 5461736B 		.ascii	"Task Started\015\012Args\015\012\000"
 624      20537461 
 624      72746564 
 624      0D0A4172 
 624      67730D0A 
 625 0019 000000   		.space	3
 626              	.LC2:
 627 001c 5461736B 		.ascii	"Task Ended\000"
 627      20456E64 
 627      656400
 628 0027 00       		.space	1
 629              	.LC3:
 630 0028 5461736B 		.ascii	"Task 2\015\012Arg:\000"
 630      20320D0A 
 630      4172673A 
 630      00
 631 0035 000000   		.space	3
 632              	.LC4:
 633 0038 535000   		.ascii	"SP\000"
 634 003b 00       		.space	1
 635              	.LC5:
 636 003c 45787065 		.ascii	"Expected Task Register State\015\012\000"
 636      63746564 
 636      20546173 
 636      6B205265 
 636      67697374 
 637 005b 00       		.space	1
 638              	.LC6:
 639 005c 4B65726E 		.ascii	"Kernel only task switch...\015\012\000"
 639      656C206F 
 639      6E6C7920 
 639      7461736B 
 639      20737769 
 640 0079 000000   		.space	3
 641              	.LC7:
 642 007c 53657474 		.ascii	"Setting up task...\015\012\000"
 642      696E6720 
 642      75702074 
 642      61736B2E 
 642      2E2E0D0A 
 643 0091 000000   		.space	3
 644              	.LC8:
 645 0094 5461736B 		.ascii	"Task switching...\015\012\000"
 645      20737769 
 645      74636869 
 645      6E672E2E 
 645      2E0D0A00 
 646              	.LC9:
 647 00a8 4261636B 		.ascii	"Back to kernel\015\012\000"
 647      20746F20 
 647      6B65726E 
 647      656C0D0A 
 647      00
 648 00b9 000000   		.space	3
 649              	.LC10:
 650 00bc 44656275 		.ascii	"Debugging OS Initialization...\015\012\000"
 650      6767696E 
 650      67204F53 
 650      20496E69 
 650      7469616C 
 651 00dd 000000   		.text
 652              	.Letext0:
 653              		.file 3 "c:\\program files (x86)\\gnu tools arm embedded\\4.9 2015q1\\lib\\gcc\\arm-none-eabi\\4.9
 654              		.file 4 "../system/include/cmsis/core_cm3.h"
 655              		.file 5 "../system/include/cmsis/stm32f10x.h"
 656              		.file 6 "../include/types.h"
 657              		.file 7 "../include/os/mutex.h"
 658              		.file 8 "../include/modules/uart.h"
 659              		.file 9 "c:\\program files (x86)\\gnu tools arm embedded\\4.9 2015q1\\lib\\gcc\\arm-none-eabi\\4.9
 660              		.file 10 "c:\\program files (x86)\\gnu tools arm embedded\\4.9 2015q1\\arm-none-eabi\\include\\str
 661              		.file 11 "../include/os_dbg.h"