   1              		.syntax unified
   2              		.cpu cortex-m3
   3              		.fpu softvfp
   4              		.eabi_attribute 20, 1
   5              		.eabi_attribute 21, 1
   6              		.eabi_attribute 23, 3
   7              		.eabi_attribute 24, 1
   8              		.eabi_attribute 25, 1
   9              		.eabi_attribute 26, 1
  10              		.eabi_attribute 30, 1
  11              		.eabi_attribute 34, 1
  12              		.eabi_attribute 18, 4
  13              		.thumb
  14              		.file	"stm32f10x_rcc.c"
  15              		.text
  16              	.Ltext0:
  17              		.cfi_sections	.debug_frame
  18              		.section	.text.RCC_DeInit,"ax",%progbits
  19              		.align	2
  20              		.global	RCC_DeInit
  21              		.thumb
  22              		.thumb_func
  23              		.type	RCC_DeInit, %function
  24              	RCC_DeInit:
  25              	.LFB56:
  26              		.file 1 "../system/src/stm32f1-stdperiph/stm32f10x_rcc.c"
  27              		.loc 1 218 0
  28              		.cfi_startproc
  29              		@ args = 0, pretend = 0, frame = 0
  30              		@ frame_needed = 0, uses_anonymous_args = 0
  31              		@ link register save eliminated.
  32              		.loc 1 220 0
  33 0000 0D4B     		ldr	r3, .L2
  34 0002 1A68     		ldr	r2, [r3]
  35 0004 42F00102 		orr	r2, r2, #1
  36 0008 1A60     		str	r2, [r3]
  37              		.loc 1 224 0
  38 000a 5968     		ldr	r1, [r3, #4]
  39 000c 0B4A     		ldr	r2, .L2+4
  40 000e 0A40     		ands	r2, r2, r1
  41 0010 5A60     		str	r2, [r3, #4]
  42              		.loc 1 230 0
  43 0012 1A68     		ldr	r2, [r3]
  44 0014 22F08472 		bic	r2, r2, #17301504
  45 0018 22F48032 		bic	r2, r2, #65536
  46 001c 1A60     		str	r2, [r3]
  47              		.loc 1 233 0
  48 001e 1A68     		ldr	r2, [r3]
  49 0020 22F48022 		bic	r2, r2, #262144
  50 0024 1A60     		str	r2, [r3]
  51              		.loc 1 236 0
  52 0026 5A68     		ldr	r2, [r3, #4]
  53 0028 22F4FE02 		bic	r2, r2, #8323072
  54 002c 5A60     		str	r2, [r3, #4]
  55              		.loc 1 255 0
  56 002e 4FF41F02 		mov	r2, #10420224
  57 0032 9A60     		str	r2, [r3, #8]
  58 0034 7047     		bx	lr
  59              	.L3:
  60 0036 00BF     		.align	2
  61              	.L2:
  62 0038 00100240 		.word	1073876992
  63 003c 0000FFF8 		.word	-117506048
  64              		.cfi_endproc
  65              	.LFE56:
  66              		.size	RCC_DeInit, .-RCC_DeInit
  67              		.section	.text.RCC_HSEConfig,"ax",%progbits
  68              		.align	2
  69              		.global	RCC_HSEConfig
  70              		.thumb
  71              		.thumb_func
  72              		.type	RCC_HSEConfig, %function
  73              	RCC_HSEConfig:
  74              	.LFB57:
  75              		.loc 1 271 0
  76              		.cfi_startproc
  77              		@ args = 0, pretend = 0, frame = 0
  78              		@ frame_needed = 0, uses_anonymous_args = 0
  79              	.LVL0:
  80 0000 10B5     		push	{r4, lr}
  81              		.cfi_def_cfa_offset 8
  82              		.cfi_offset 4, -8
  83              		.cfi_offset 14, -4
  84              		.loc 1 273 0
  85 0002 0446     		mov	r4, r0
  86 0004 50B1     		cbz	r0, .L5
  87              		.loc 1 273 0 is_stmt 0 discriminator 1
  88 0006 B0F5803F 		cmp	r0, #65536
  89 000a 07D0     		beq	.L5
  90              		.loc 1 273 0 discriminator 2
  91 000c B0F5802F 		cmp	r0, #262144
  92 0010 04D0     		beq	.L5
  93              		.loc 1 273 0 discriminator 3
  94 0012 1048     		ldr	r0, .L10
  95              	.LVL1:
  96 0014 40F21111 		movw	r1, #273
  97 0018 FFF7FEFF 		bl	assert_failed
  98              	.LVL2:
  99              	.L5:
 100              		.loc 1 276 0 is_stmt 1
 101 001c 0E4B     		ldr	r3, .L10+4
 102 001e 1A68     		ldr	r2, [r3]
 103 0020 22F48032 		bic	r2, r2, #65536
 104 0024 1A60     		str	r2, [r3]
 105              		.loc 1 278 0
 106 0026 1A68     		ldr	r2, [r3]
 107 0028 22F48022 		bic	r2, r2, #262144
 108 002c 1A60     		str	r2, [r3]
 109              		.loc 1 280 0
 110 002e B4F5803F 		cmp	r4, #65536
 111 0032 03D0     		beq	.L7
 112 0034 B4F5802F 		cmp	r4, #262144
 113 0038 06D0     		beq	.L8
 114 003a 10BD     		pop	{r4, pc}
 115              	.LVL3:
 116              	.L7:
 117              		.loc 1 284 0
 118 003c 064A     		ldr	r2, .L10+4
 119 003e 1368     		ldr	r3, [r2]
 120 0040 43F48033 		orr	r3, r3, #65536
 121 0044 1360     		str	r3, [r2]
 122              		.loc 1 285 0
 123 0046 10BD     		pop	{r4, pc}
 124              	.LVL4:
 125              	.L8:
 126              		.loc 1 289 0
 127 0048 034A     		ldr	r2, .L10+4
 128 004a 1368     		ldr	r3, [r2]
 129 004c 43F4A023 		orr	r3, r3, #327680
 130 0050 1360     		str	r3, [r2]
 131 0052 10BD     		pop	{r4, pc}
 132              	.LVL5:
 133              	.L11:
 134              		.align	2
 135              	.L10:
 136 0054 00000000 		.word	.LC0
 137 0058 00100240 		.word	1073876992
 138              		.cfi_endproc
 139              	.LFE57:
 140              		.size	RCC_HSEConfig, .-RCC_HSEConfig
 141              		.section	.text.RCC_AdjustHSICalibrationValue,"ax",%progbits
 142              		.align	2
 143              		.global	RCC_AdjustHSICalibrationValue
 144              		.thumb
 145              		.thumb_func
 146              		.type	RCC_AdjustHSICalibrationValue, %function
 147              	RCC_AdjustHSICalibrationValue:
 148              	.LFB59:
 149              		.loc 1 335 0
 150              		.cfi_startproc
 151              		@ args = 0, pretend = 0, frame = 0
 152              		@ frame_needed = 0, uses_anonymous_args = 0
 153              	.LVL6:
 154 0000 10B5     		push	{r4, lr}
 155              		.cfi_def_cfa_offset 8
 156              		.cfi_offset 4, -8
 157              		.cfi_offset 14, -4
 158 0002 0446     		mov	r4, r0
 159              	.LVL7:
 160              		.loc 1 338 0
 161 0004 1F28     		cmp	r0, #31
 162 0006 04D9     		bls	.L13
 163              		.loc 1 338 0 is_stmt 0 discriminator 1
 164 0008 0648     		ldr	r0, .L15
 165              	.LVL8:
 166 000a 4FF4A971 		mov	r1, #338
 167 000e FFF7FEFF 		bl	assert_failed
 168              	.LVL9:
 169              	.L13:
 170              		.loc 1 339 0 is_stmt 1
 171 0012 054B     		ldr	r3, .L15+4
 172 0014 1868     		ldr	r0, [r3]
 173              	.LVL10:
 174              		.loc 1 341 0
 175 0016 20F0F800 		bic	r0, r0, #248
 176              	.LVL11:
 177              		.loc 1 343 0
 178 001a 40EAC400 		orr	r0, r0, r4, lsl #3
 179              	.LVL12:
 180              		.loc 1 345 0
 181 001e 1860     		str	r0, [r3]
 182 0020 10BD     		pop	{r4, pc}
 183              	.L16:
 184 0022 00BF     		.align	2
 185              	.L15:
 186 0024 00000000 		.word	.LC0
 187 0028 00100240 		.word	1073876992
 188              		.cfi_endproc
 189              	.LFE59:
 190              		.size	RCC_AdjustHSICalibrationValue, .-RCC_AdjustHSICalibrationValue
 191              		.section	.text.RCC_HSICmd,"ax",%progbits
 192              		.align	2
 193              		.global	RCC_HSICmd
 194              		.thumb
 195              		.thumb_func
 196              		.type	RCC_HSICmd, %function
 197              	RCC_HSICmd:
 198              	.LFB60:
 199              		.loc 1 355 0
 200              		.cfi_startproc
 201              		@ args = 0, pretend = 0, frame = 0
 202              		@ frame_needed = 0, uses_anonymous_args = 0
 203              	.LVL13:
 204 0000 10B5     		push	{r4, lr}
 205              		.cfi_def_cfa_offset 8
 206              		.cfi_offset 4, -8
 207              		.cfi_offset 14, -4
 208 0002 0446     		mov	r4, r0
 209              		.loc 1 357 0
 210 0004 0128     		cmp	r0, #1
 211 0006 04D9     		bls	.L18
 212              		.loc 1 357 0 is_stmt 0 discriminator 1
 213 0008 0348     		ldr	r0, .L20
 214              	.LVL14:
 215 000a 40F26511 		movw	r1, #357
 216 000e FFF7FEFF 		bl	assert_failed
 217              	.LVL15:
 218              	.L18:
 219              		.loc 1 358 0 is_stmt 1
 220 0012 024B     		ldr	r3, .L20+4
 221 0014 1C60     		str	r4, [r3]
 222 0016 10BD     		pop	{r4, pc}
 223              	.L21:
 224              		.align	2
 225              	.L20:
 226 0018 00000000 		.word	.LC0
 227 001c 00004242 		.word	1111621632
 228              		.cfi_endproc
 229              	.LFE60:
 230              		.size	RCC_HSICmd, .-RCC_HSICmd
 231              		.section	.text.RCC_PLLConfig,"ax",%progbits
 232              		.align	2
 233              		.global	RCC_PLLConfig
 234              		.thumb
 235              		.thumb_func
 236              		.type	RCC_PLLConfig, %function
 237              	RCC_PLLConfig:
 238              	.LFB61:
 239              		.loc 1 379 0
 240              		.cfi_startproc
 241              		@ args = 0, pretend = 0, frame = 0
 242              		@ frame_needed = 0, uses_anonymous_args = 0
 243              	.LVL16:
 244 0000 38B5     		push	{r3, r4, r5, lr}
 245              		.cfi_def_cfa_offset 16
 246              		.cfi_offset 3, -16
 247              		.cfi_offset 4, -12
 248              		.cfi_offset 5, -8
 249              		.cfi_offset 14, -4
 250 0002 0C46     		mov	r4, r1
 251              	.LVL17:
 252              		.loc 1 383 0
 253 0004 0546     		mov	r5, r0
 254 0006 50B1     		cbz	r0, .L23
 255              		.loc 1 383 0 is_stmt 0 discriminator 1
 256 0008 B0F5803F 		cmp	r0, #65536
 257 000c 07D0     		beq	.L23
 258              		.loc 1 383 0 discriminator 2
 259 000e B0F5403F 		cmp	r0, #196608
 260 0012 04D0     		beq	.L23
 261              		.loc 1 383 0 discriminator 3
 262 0014 1E48     		ldr	r0, .L26
 263              	.LVL18:
 264 0016 40F27F11 		movw	r1, #383
 265              	.LVL19:
 266 001a FFF7FEFF 		bl	assert_failed
 267              	.LVL20:
 268              	.L23:
 269              		.loc 1 384 0 is_stmt 1
 270 001e 74B3     		cbz	r4, .L24
 271              		.loc 1 384 0 is_stmt 0 discriminator 1
 272 0020 B4F5802F 		cmp	r4, #262144
 273 0024 2BD0     		beq	.L24
 274              		.loc 1 384 0 discriminator 2
 275 0026 B4F5002F 		cmp	r4, #524288
 276 002a 28D0     		beq	.L24
 277              		.loc 1 384 0 discriminator 3
 278 002c B4F5402F 		cmp	r4, #786432
 279 0030 25D0     		beq	.L24
 280              		.loc 1 384 0 discriminator 4
 281 0032 B4F5801F 		cmp	r4, #1048576
 282 0036 22D0     		beq	.L24
 283              		.loc 1 384 0 discriminator 5
 284 0038 B4F5A01F 		cmp	r4, #1310720
 285 003c 1FD0     		beq	.L24
 286              		.loc 1 384 0 discriminator 6
 287 003e B4F5C01F 		cmp	r4, #1572864
 288 0042 1CD0     		beq	.L24
 289              		.loc 1 384 0 discriminator 7
 290 0044 B4F5E01F 		cmp	r4, #1835008
 291 0048 19D0     		beq	.L24
 292              		.loc 1 384 0 discriminator 8
 293 004a B4F5001F 		cmp	r4, #2097152
 294 004e 16D0     		beq	.L24
 295              		.loc 1 384 0 discriminator 9
 296 0050 B4F5101F 		cmp	r4, #2359296
 297 0054 13D0     		beq	.L24
 298              		.loc 1 384 0 discriminator 10
 299 0056 B4F5201F 		cmp	r4, #2621440
 300 005a 10D0     		beq	.L24
 301              		.loc 1 384 0 discriminator 11
 302 005c B4F5301F 		cmp	r4, #2883584
 303 0060 0DD0     		beq	.L24
 304              		.loc 1 384 0 discriminator 12
 305 0062 B4F5401F 		cmp	r4, #3145728
 306 0066 0AD0     		beq	.L24
 307              		.loc 1 384 0 discriminator 13
 308 0068 B4F5501F 		cmp	r4, #3407872
 309 006c 07D0     		beq	.L24
 310              		.loc 1 384 0 discriminator 14
 311 006e B4F5601F 		cmp	r4, #3670016
 312 0072 04D0     		beq	.L24
 313              		.loc 1 384 0 discriminator 15
 314 0074 0648     		ldr	r0, .L26
 315 0076 4FF4C071 		mov	r1, #384
 316 007a FFF7FEFF 		bl	assert_failed
 317              	.LVL21:
 318              	.L24:
 319              		.loc 1 386 0 is_stmt 1
 320 007e 054A     		ldr	r2, .L26+4
 321 0080 5368     		ldr	r3, [r2, #4]
 322              	.LVL22:
 323              		.loc 1 388 0
 324 0082 23F47C13 		bic	r3, r3, #4128768
 325              	.LVL23:
 326              		.loc 1 390 0
 327 0086 2C43     		orrs	r4, r4, r5
 328              	.LVL24:
 329 0088 1C43     		orrs	r4, r4, r3
 330              	.LVL25:
 331              		.loc 1 392 0
 332 008a 5460     		str	r4, [r2, #4]
 333 008c 38BD     		pop	{r3, r4, r5, pc}
 334              	.LVL26:
 335              	.L27:
 336 008e 00BF     		.align	2
 337              	.L26:
 338 0090 00000000 		.word	.LC0
 339 0094 00100240 		.word	1073876992
 340              		.cfi_endproc
 341              	.LFE61:
 342              		.size	RCC_PLLConfig, .-RCC_PLLConfig
 343              		.section	.text.RCC_PLLCmd,"ax",%progbits
 344              		.align	2
 345              		.global	RCC_PLLCmd
 346              		.thumb
 347              		.thumb_func
 348              		.type	RCC_PLLCmd, %function
 349              	RCC_PLLCmd:
 350              	.LFB62:
 351              		.loc 1 402 0
 352              		.cfi_startproc
 353              		@ args = 0, pretend = 0, frame = 0
 354              		@ frame_needed = 0, uses_anonymous_args = 0
 355              	.LVL27:
 356 0000 10B5     		push	{r4, lr}
 357              		.cfi_def_cfa_offset 8
 358              		.cfi_offset 4, -8
 359              		.cfi_offset 14, -4
 360 0002 0446     		mov	r4, r0
 361              		.loc 1 404 0
 362 0004 0128     		cmp	r0, #1
 363 0006 04D9     		bls	.L29
 364              		.loc 1 404 0 is_stmt 0 discriminator 1
 365 0008 0348     		ldr	r0, .L31
 366              	.LVL28:
 367 000a 4FF4CA71 		mov	r1, #404
 368 000e FFF7FEFF 		bl	assert_failed
 369              	.LVL29:
 370              	.L29:
 371              		.loc 1 406 0 is_stmt 1
 372 0012 024B     		ldr	r3, .L31+4
 373 0014 1C60     		str	r4, [r3]
 374 0016 10BD     		pop	{r4, pc}
 375              	.L32:
 376              		.align	2
 377              	.L31:
 378 0018 00000000 		.word	.LC0
 379 001c 60004242 		.word	1111621728
 380              		.cfi_endproc
 381              	.LFE62:
 382              		.size	RCC_PLLCmd, .-RCC_PLLCmd
 383              		.section	.text.RCC_SYSCLKConfig,"ax",%progbits
 384              		.align	2
 385              		.global	RCC_SYSCLKConfig
 386              		.thumb
 387              		.thumb_func
 388              		.type	RCC_SYSCLKConfig, %function
 389              	RCC_SYSCLKConfig:
 390              	.LFB63:
 391              		.loc 1 565 0
 392              		.cfi_startproc
 393              		@ args = 0, pretend = 0, frame = 0
 394              		@ frame_needed = 0, uses_anonymous_args = 0
 395              	.LVL30:
 396 0000 10B5     		push	{r4, lr}
 397              		.cfi_def_cfa_offset 8
 398              		.cfi_offset 4, -8
 399              		.cfi_offset 14, -4
 400 0002 0446     		mov	r4, r0
 401              	.LVL31:
 402              		.loc 1 568 0
 403 0004 0228     		cmp	r0, #2
 404 0006 04D9     		bls	.L34
 405              		.loc 1 568 0 is_stmt 0 discriminator 1
 406 0008 0548     		ldr	r0, .L36
 407              	.LVL32:
 408 000a 4FF40E71 		mov	r1, #568
 409 000e FFF7FEFF 		bl	assert_failed
 410              	.LVL33:
 411              	.L34:
 412              		.loc 1 569 0 is_stmt 1
 413 0012 044A     		ldr	r2, .L36+4
 414 0014 5368     		ldr	r3, [r2, #4]
 415              	.LVL34:
 416              		.loc 1 571 0
 417 0016 23F00303 		bic	r3, r3, #3
 418              	.LVL35:
 419              		.loc 1 573 0
 420 001a 1C43     		orrs	r4, r4, r3
 421              	.LVL36:
 422              		.loc 1 575 0
 423 001c 5460     		str	r4, [r2, #4]
 424 001e 10BD     		pop	{r4, pc}
 425              	.LVL37:
 426              	.L37:
 427              		.align	2
 428              	.L36:
 429 0020 00000000 		.word	.LC0
 430 0024 00100240 		.word	1073876992
 431              		.cfi_endproc
 432              	.LFE63:
 433              		.size	RCC_SYSCLKConfig, .-RCC_SYSCLKConfig
 434              		.section	.text.RCC_GetSYSCLKSource,"ax",%progbits
 435              		.align	2
 436              		.global	RCC_GetSYSCLKSource
 437              		.thumb
 438              		.thumb_func
 439              		.type	RCC_GetSYSCLKSource, %function
 440              	RCC_GetSYSCLKSource:
 441              	.LFB64:
 442              		.loc 1 588 0
 443              		.cfi_startproc
 444              		@ args = 0, pretend = 0, frame = 0
 445              		@ frame_needed = 0, uses_anonymous_args = 0
 446              		@ link register save eliminated.
 447              		.loc 1 589 0
 448 0000 024B     		ldr	r3, .L39
 449 0002 5868     		ldr	r0, [r3, #4]
 450              		.loc 1 590 0
 451 0004 00F00C00 		and	r0, r0, #12
 452 0008 7047     		bx	lr
 453              	.L40:
 454 000a 00BF     		.align	2
 455              	.L39:
 456 000c 00100240 		.word	1073876992
 457              		.cfi_endproc
 458              	.LFE64:
 459              		.size	RCC_GetSYSCLKSource, .-RCC_GetSYSCLKSource
 460              		.section	.text.RCC_HCLKConfig,"ax",%progbits
 461              		.align	2
 462              		.global	RCC_HCLKConfig
 463              		.thumb
 464              		.thumb_func
 465              		.type	RCC_HCLKConfig, %function
 466              	RCC_HCLKConfig:
 467              	.LFB65:
 468              		.loc 1 609 0
 469              		.cfi_startproc
 470              		@ args = 0, pretend = 0, frame = 0
 471              		@ frame_needed = 0, uses_anonymous_args = 0
 472              	.LVL38:
 473 0000 10B5     		push	{r4, lr}
 474              		.cfi_def_cfa_offset 8
 475              		.cfi_offset 4, -8
 476              		.cfi_offset 14, -4
 477              	.LVL39:
 478              		.loc 1 612 0
 479 0002 0446     		mov	r4, r0
 480 0004 A0B1     		cbz	r0, .L42
 481              		.loc 1 612 0 is_stmt 0 discriminator 1
 482 0006 8028     		cmp	r0, #128
 483 0008 12D0     		beq	.L42
 484              		.loc 1 612 0 discriminator 2
 485 000a 9028     		cmp	r0, #144
 486 000c 10D0     		beq	.L42
 487              		.loc 1 612 0 discriminator 3
 488 000e A028     		cmp	r0, #160
 489 0010 0ED0     		beq	.L42
 490              		.loc 1 612 0 discriminator 4
 491 0012 B028     		cmp	r0, #176
 492 0014 0CD0     		beq	.L42
 493              		.loc 1 612 0 discriminator 5
 494 0016 C028     		cmp	r0, #192
 495 0018 0AD0     		beq	.L42
 496              		.loc 1 612 0 discriminator 6
 497 001a D028     		cmp	r0, #208
 498 001c 08D0     		beq	.L42
 499              		.loc 1 612 0 discriminator 7
 500 001e E028     		cmp	r0, #224
 501 0020 06D0     		beq	.L42
 502              		.loc 1 612 0 discriminator 8
 503 0022 F028     		cmp	r0, #240
 504 0024 04D0     		beq	.L42
 505              		.loc 1 612 0 discriminator 9
 506 0026 0648     		ldr	r0, .L44
 507              	.LVL40:
 508 0028 4FF41971 		mov	r1, #612
 509 002c FFF7FEFF 		bl	assert_failed
 510              	.LVL41:
 511              	.L42:
 512              		.loc 1 613 0 is_stmt 1
 513 0030 044A     		ldr	r2, .L44+4
 514 0032 5368     		ldr	r3, [r2, #4]
 515              	.LVL42:
 516              		.loc 1 615 0
 517 0034 23F0F003 		bic	r3, r3, #240
 518              	.LVL43:
 519              		.loc 1 617 0
 520 0038 1C43     		orrs	r4, r4, r3
 521              	.LVL44:
 522              		.loc 1 619 0
 523 003a 5460     		str	r4, [r2, #4]
 524 003c 10BD     		pop	{r4, pc}
 525              	.LVL45:
 526              	.L45:
 527 003e 00BF     		.align	2
 528              	.L44:
 529 0040 00000000 		.word	.LC0
 530 0044 00100240 		.word	1073876992
 531              		.cfi_endproc
 532              	.LFE65:
 533              		.size	RCC_HCLKConfig, .-RCC_HCLKConfig
 534              		.section	.text.RCC_PCLK1Config,"ax",%progbits
 535              		.align	2
 536              		.global	RCC_PCLK1Config
 537              		.thumb
 538              		.thumb_func
 539              		.type	RCC_PCLK1Config, %function
 540              	RCC_PCLK1Config:
 541              	.LFB66:
 542              		.loc 1 635 0
 543              		.cfi_startproc
 544              		@ args = 0, pretend = 0, frame = 0
 545              		@ frame_needed = 0, uses_anonymous_args = 0
 546              	.LVL46:
 547 0000 10B5     		push	{r4, lr}
 548              		.cfi_def_cfa_offset 8
 549              		.cfi_offset 4, -8
 550              		.cfi_offset 14, -4
 551              	.LVL47:
 552              		.loc 1 638 0
 553 0002 0446     		mov	r4, r0
 554 0004 80B1     		cbz	r0, .L47
 555              		.loc 1 638 0 is_stmt 0 discriminator 1
 556 0006 B0F5806F 		cmp	r0, #1024
 557 000a 0DD0     		beq	.L47
 558              		.loc 1 638 0 discriminator 2
 559 000c B0F5A06F 		cmp	r0, #1280
 560 0010 0AD0     		beq	.L47
 561              		.loc 1 638 0 discriminator 3
 562 0012 B0F5C06F 		cmp	r0, #1536
 563 0016 07D0     		beq	.L47
 564              		.loc 1 638 0 discriminator 4
 565 0018 B0F5E06F 		cmp	r0, #1792
 566 001c 04D0     		beq	.L47
 567              		.loc 1 638 0 discriminator 5
 568 001e 0648     		ldr	r0, .L49
 569              	.LVL48:
 570 0020 40F27E21 		movw	r1, #638
 571 0024 FFF7FEFF 		bl	assert_failed
 572              	.LVL49:
 573              	.L47:
 574              		.loc 1 639 0 is_stmt 1
 575 0028 044A     		ldr	r2, .L49+4
 576 002a 5368     		ldr	r3, [r2, #4]
 577              	.LVL50:
 578              		.loc 1 641 0
 579 002c 23F4E063 		bic	r3, r3, #1792
 580              	.LVL51:
 581              		.loc 1 643 0
 582 0030 1C43     		orrs	r4, r4, r3
 583              	.LVL52:
 584              		.loc 1 645 0
 585 0032 5460     		str	r4, [r2, #4]
 586 0034 10BD     		pop	{r4, pc}
 587              	.LVL53:
 588              	.L50:
 589 0036 00BF     		.align	2
 590              	.L49:
 591 0038 00000000 		.word	.LC0
 592 003c 00100240 		.word	1073876992
 593              		.cfi_endproc
 594              	.LFE66:
 595              		.size	RCC_PCLK1Config, .-RCC_PCLK1Config
 596              		.section	.text.RCC_PCLK2Config,"ax",%progbits
 597              		.align	2
 598              		.global	RCC_PCLK2Config
 599              		.thumb
 600              		.thumb_func
 601              		.type	RCC_PCLK2Config, %function
 602              	RCC_PCLK2Config:
 603              	.LFB67:
 604              		.loc 1 661 0
 605              		.cfi_startproc
 606              		@ args = 0, pretend = 0, frame = 0
 607              		@ frame_needed = 0, uses_anonymous_args = 0
 608              	.LVL54:
 609 0000 10B5     		push	{r4, lr}
 610              		.cfi_def_cfa_offset 8
 611              		.cfi_offset 4, -8
 612              		.cfi_offset 14, -4
 613              	.LVL55:
 614              		.loc 1 664 0
 615 0002 0446     		mov	r4, r0
 616 0004 80B1     		cbz	r0, .L52
 617              		.loc 1 664 0 is_stmt 0 discriminator 1
 618 0006 B0F5806F 		cmp	r0, #1024
 619 000a 0DD0     		beq	.L52
 620              		.loc 1 664 0 discriminator 2
 621 000c B0F5A06F 		cmp	r0, #1280
 622 0010 0AD0     		beq	.L52
 623              		.loc 1 664 0 discriminator 3
 624 0012 B0F5C06F 		cmp	r0, #1536
 625 0016 07D0     		beq	.L52
 626              		.loc 1 664 0 discriminator 4
 627 0018 B0F5E06F 		cmp	r0, #1792
 628 001c 04D0     		beq	.L52
 629              		.loc 1 664 0 discriminator 5
 630 001e 0648     		ldr	r0, .L54
 631              	.LVL56:
 632 0020 4FF42671 		mov	r1, #664
 633 0024 FFF7FEFF 		bl	assert_failed
 634              	.LVL57:
 635              	.L52:
 636              		.loc 1 665 0 is_stmt 1
 637 0028 044B     		ldr	r3, .L54+4
 638 002a 5868     		ldr	r0, [r3, #4]
 639              	.LVL58:
 640              		.loc 1 667 0
 641 002c 20F46050 		bic	r0, r0, #14336
 642              	.LVL59:
 643              		.loc 1 669 0
 644 0030 40EAC400 		orr	r0, r0, r4, lsl #3
 645              	.LVL60:
 646              		.loc 1 671 0
 647 0034 5860     		str	r0, [r3, #4]
 648 0036 10BD     		pop	{r4, pc}
 649              	.LVL61:
 650              	.L55:
 651              		.align	2
 652              	.L54:
 653 0038 00000000 		.word	.LC0
 654 003c 00100240 		.word	1073876992
 655              		.cfi_endproc
 656              	.LFE67:
 657              		.size	RCC_PCLK2Config, .-RCC_PCLK2Config
 658              		.section	.text.RCC_ITConfig,"ax",%progbits
 659              		.align	2
 660              		.global	RCC_ITConfig
 661              		.thumb
 662              		.thumb_func
 663              		.type	RCC_ITConfig, %function
 664              	RCC_ITConfig:
 665              	.LFB68:
 666              		.loc 1 701 0
 667              		.cfi_startproc
 668              		@ args = 0, pretend = 0, frame = 0
 669              		@ frame_needed = 0, uses_anonymous_args = 0
 670              	.LVL62:
 671 0000 38B5     		push	{r3, r4, r5, lr}
 672              		.cfi_def_cfa_offset 16
 673              		.cfi_offset 3, -16
 674              		.cfi_offset 4, -12
 675              		.cfi_offset 5, -8
 676              		.cfi_offset 14, -4
 677 0002 0446     		mov	r4, r0
 678 0004 0D46     		mov	r5, r1
 679              		.loc 1 703 0
 680 0006 10F0E00F 		tst	r0, #224
 681 000a 00D1     		bne	.L57
 682              		.loc 1 703 0 is_stmt 0 discriminator 2
 683 000c 20B9     		cbnz	r0, .L58
 684              	.L57:
 685              		.loc 1 703 0 discriminator 3
 686 000e 0C48     		ldr	r0, .L63
 687              	.LVL63:
 688 0010 40F2BF21 		movw	r1, #703
 689              	.LVL64:
 690 0014 FFF7FEFF 		bl	assert_failed
 691              	.LVL65:
 692              	.L58:
 693              		.loc 1 704 0 is_stmt 1
 694 0018 012D     		cmp	r5, #1
 695 001a 04D9     		bls	.L59
 696              		.loc 1 704 0 is_stmt 0 discriminator 1
 697 001c 0848     		ldr	r0, .L63
 698 001e 4FF43071 		mov	r1, #704
 699 0022 FFF7FEFF 		bl	assert_failed
 700              	.LVL66:
 701              	.L59:
 702              		.loc 1 705 0 is_stmt 1
 703 0026 25B1     		cbz	r5, .L60
 704              		.loc 1 708 0
 705 0028 064B     		ldr	r3, .L63+4
 706 002a 1A78     		ldrb	r2, [r3]	@ zero_extendqisi2
 707 002c 1443     		orrs	r4, r4, r2
 708 002e 1C70     		strb	r4, [r3]
 709 0030 38BD     		pop	{r3, r4, r5, pc}
 710              	.L60:
 711              		.loc 1 713 0
 712 0032 044A     		ldr	r2, .L63+4
 713 0034 1378     		ldrb	r3, [r2]	@ zero_extendqisi2
 714 0036 23EA0404 		bic	r4, r3, r4
 715 003a 1470     		strb	r4, [r2]
 716 003c 38BD     		pop	{r3, r4, r5, pc}
 717              	.L64:
 718 003e 00BF     		.align	2
 719              	.L63:
 720 0040 00000000 		.word	.LC0
 721 0044 09100240 		.word	1073877001
 722              		.cfi_endproc
 723              	.LFE68:
 724              		.size	RCC_ITConfig, .-RCC_ITConfig
 725              		.section	.text.RCC_USBCLKConfig,"ax",%progbits
 726              		.align	2
 727              		.global	RCC_USBCLKConfig
 728              		.thumb
 729              		.thumb_func
 730              		.type	RCC_USBCLKConfig, %function
 731              	RCC_USBCLKConfig:
 732              	.LFB69:
 733              		.loc 1 729 0
 734              		.cfi_startproc
 735              		@ args = 0, pretend = 0, frame = 0
 736              		@ frame_needed = 0, uses_anonymous_args = 0
 737              	.LVL67:
 738 0000 10B5     		push	{r4, lr}
 739              		.cfi_def_cfa_offset 8
 740              		.cfi_offset 4, -8
 741              		.cfi_offset 14, -4
 742 0002 0446     		mov	r4, r0
 743              		.loc 1 731 0
 744 0004 0128     		cmp	r0, #1
 745 0006 04D9     		bls	.L66
 746              		.loc 1 731 0 is_stmt 0 discriminator 1
 747 0008 0348     		ldr	r0, .L68
 748              	.LVL68:
 749 000a 40F2DB21 		movw	r1, #731
 750 000e FFF7FEFF 		bl	assert_failed
 751              	.LVL69:
 752              	.L66:
 753              		.loc 1 733 0 is_stmt 1
 754 0012 024B     		ldr	r3, .L68+4
 755 0014 1C60     		str	r4, [r3]
 756 0016 10BD     		pop	{r4, pc}
 757              	.LVL70:
 758              	.L69:
 759              		.align	2
 760              	.L68:
 761 0018 00000000 		.word	.LC0
 762 001c D8004242 		.word	1111621848
 763              		.cfi_endproc
 764              	.LFE69:
 765              		.size	RCC_USBCLKConfig, .-RCC_USBCLKConfig
 766              		.section	.text.RCC_ADCCLKConfig,"ax",%progbits
 767              		.align	2
 768              		.global	RCC_ADCCLKConfig
 769              		.thumb
 770              		.thumb_func
 771              		.type	RCC_ADCCLKConfig, %function
 772              	RCC_ADCCLKConfig:
 773              	.LFB70:
 774              		.loc 1 767 0
 775              		.cfi_startproc
 776              		@ args = 0, pretend = 0, frame = 0
 777              		@ frame_needed = 0, uses_anonymous_args = 0
 778              	.LVL71:
 779 0000 10B5     		push	{r4, lr}
 780              		.cfi_def_cfa_offset 8
 781              		.cfi_offset 4, -8
 782              		.cfi_offset 14, -4
 783              	.LVL72:
 784              		.loc 1 770 0
 785 0002 0446     		mov	r4, r0
 786 0004 68B1     		cbz	r0, .L71
 787              		.loc 1 770 0 is_stmt 0 discriminator 1
 788 0006 B0F5804F 		cmp	r0, #16384
 789 000a 0AD0     		beq	.L71
 790              		.loc 1 770 0 discriminator 2
 791 000c B0F5004F 		cmp	r0, #32768
 792 0010 07D0     		beq	.L71
 793              		.loc 1 770 0 discriminator 3
 794 0012 B0F5404F 		cmp	r0, #49152
 795 0016 04D0     		beq	.L71
 796              		.loc 1 770 0 discriminator 4
 797 0018 0548     		ldr	r0, .L73
 798              	.LVL73:
 799 001a 40F20231 		movw	r1, #770
 800 001e FFF7FEFF 		bl	assert_failed
 801              	.LVL74:
 802              	.L71:
 803              		.loc 1 771 0 is_stmt 1
 804 0022 044A     		ldr	r2, .L73+4
 805 0024 5368     		ldr	r3, [r2, #4]
 806              	.LVL75:
 807              		.loc 1 773 0
 808 0026 23F44043 		bic	r3, r3, #49152
 809              	.LVL76:
 810              		.loc 1 775 0
 811 002a 1C43     		orrs	r4, r4, r3
 812              	.LVL77:
 813              		.loc 1 777 0
 814 002c 5460     		str	r4, [r2, #4]
 815 002e 10BD     		pop	{r4, pc}
 816              	.LVL78:
 817              	.L74:
 818              		.align	2
 819              	.L73:
 820 0030 00000000 		.word	.LC0
 821 0034 00100240 		.word	1073876992
 822              		.cfi_endproc
 823              	.LFE70:
 824              		.size	RCC_ADCCLKConfig, .-RCC_ADCCLKConfig
 825              		.section	.text.RCC_LSEConfig,"ax",%progbits
 826              		.align	2
 827              		.global	RCC_LSEConfig
 828              		.thumb
 829              		.thumb_func
 830              		.type	RCC_LSEConfig, %function
 831              	RCC_LSEConfig:
 832              	.LFB71:
 833              		.loc 1 830 0
 834              		.cfi_startproc
 835              		@ args = 0, pretend = 0, frame = 0
 836              		@ frame_needed = 0, uses_anonymous_args = 0
 837              	.LVL79:
 838 0000 10B5     		push	{r4, lr}
 839              		.cfi_def_cfa_offset 8
 840              		.cfi_offset 4, -8
 841              		.cfi_offset 14, -4
 842 0002 0446     		mov	r4, r0
 843              		.loc 1 832 0
 844 0004 0128     		cmp	r0, #1
 845 0006 06D9     		bls	.L76
 846              		.loc 1 832 0 is_stmt 0 discriminator 1
 847 0008 0428     		cmp	r0, #4
 848 000a 04D0     		beq	.L76
 849              		.loc 1 832 0 discriminator 2
 850 000c 0A48     		ldr	r0, .L81
 851              	.LVL80:
 852 000e 4FF45071 		mov	r1, #832
 853 0012 FFF7FEFF 		bl	assert_failed
 854              	.LVL81:
 855              	.L76:
 856              		.loc 1 835 0 is_stmt 1
 857 0016 094B     		ldr	r3, .L81+4
 858 0018 0022     		movs	r2, #0
 859 001a 1A70     		strb	r2, [r3]
 860              		.loc 1 837 0
 861 001c 1A70     		strb	r2, [r3]
 862              		.loc 1 839 0
 863 001e 012C     		cmp	r4, #1
 864 0020 02D0     		beq	.L78
 865 0022 042C     		cmp	r4, #4
 866 0024 04D0     		beq	.L79
 867 0026 10BD     		pop	{r4, pc}
 868              	.L78:
 869              		.loc 1 843 0
 870 0028 0122     		movs	r2, #1
 871 002a 044B     		ldr	r3, .L81+4
 872 002c 1A70     		strb	r2, [r3]
 873              		.loc 1 844 0
 874 002e 10BD     		pop	{r4, pc}
 875              	.L79:
 876              		.loc 1 848 0
 877 0030 0522     		movs	r2, #5
 878 0032 024B     		ldr	r3, .L81+4
 879 0034 1A70     		strb	r2, [r3]
 880 0036 10BD     		pop	{r4, pc}
 881              	.L82:
 882              		.align	2
 883              	.L81:
 884 0038 00000000 		.word	.LC0
 885 003c 20100240 		.word	1073877024
 886              		.cfi_endproc
 887              	.LFE71:
 888              		.size	RCC_LSEConfig, .-RCC_LSEConfig
 889              		.section	.text.RCC_LSICmd,"ax",%progbits
 890              		.align	2
 891              		.global	RCC_LSICmd
 892              		.thumb
 893              		.thumb_func
 894              		.type	RCC_LSICmd, %function
 895              	RCC_LSICmd:
 896              	.LFB72:
 897              		.loc 1 863 0
 898              		.cfi_startproc
 899              		@ args = 0, pretend = 0, frame = 0
 900              		@ frame_needed = 0, uses_anonymous_args = 0
 901              	.LVL82:
 902 0000 10B5     		push	{r4, lr}
 903              		.cfi_def_cfa_offset 8
 904              		.cfi_offset 4, -8
 905              		.cfi_offset 14, -4
 906 0002 0446     		mov	r4, r0
 907              		.loc 1 865 0
 908 0004 0128     		cmp	r0, #1
 909 0006 04D9     		bls	.L84
 910              		.loc 1 865 0 is_stmt 0 discriminator 1
 911 0008 0348     		ldr	r0, .L86
 912              	.LVL83:
 913 000a 40F26131 		movw	r1, #865
 914 000e FFF7FEFF 		bl	assert_failed
 915              	.LVL84:
 916              	.L84:
 917              		.loc 1 866 0 is_stmt 1
 918 0012 024B     		ldr	r3, .L86+4
 919 0014 1C60     		str	r4, [r3]
 920 0016 10BD     		pop	{r4, pc}
 921              	.L87:
 922              		.align	2
 923              	.L86:
 924 0018 00000000 		.word	.LC0
 925 001c 80044242 		.word	1111622784
 926              		.cfi_endproc
 927              	.LFE72:
 928              		.size	RCC_LSICmd, .-RCC_LSICmd
 929              		.section	.text.RCC_RTCCLKConfig,"ax",%progbits
 930              		.align	2
 931              		.global	RCC_RTCCLKConfig
 932              		.thumb
 933              		.thumb_func
 934              		.type	RCC_RTCCLKConfig, %function
 935              	RCC_RTCCLKConfig:
 936              	.LFB73:
 937              		.loc 1 880 0
 938              		.cfi_startproc
 939              		@ args = 0, pretend = 0, frame = 0
 940              		@ frame_needed = 0, uses_anonymous_args = 0
 941              	.LVL85:
 942 0000 10B5     		push	{r4, lr}
 943              		.cfi_def_cfa_offset 8
 944              		.cfi_offset 4, -8
 945              		.cfi_offset 14, -4
 946 0002 0446     		mov	r4, r0
 947              		.loc 1 882 0
 948 0004 B0F5807F 		cmp	r0, #256
 949 0008 0AD0     		beq	.L89
 950              		.loc 1 882 0 is_stmt 0 discriminator 1
 951 000a B0F5007F 		cmp	r0, #512
 952 000e 07D0     		beq	.L89
 953              		.loc 1 882 0 discriminator 2
 954 0010 B0F5407F 		cmp	r0, #768
 955 0014 04D0     		beq	.L89
 956              		.loc 1 882 0 discriminator 3
 957 0016 0548     		ldr	r0, .L91
 958              	.LVL86:
 959 0018 40F27231 		movw	r1, #882
 960 001c FFF7FEFF 		bl	assert_failed
 961              	.LVL87:
 962              	.L89:
 963              		.loc 1 884 0 is_stmt 1
 964 0020 034B     		ldr	r3, .L91+4
 965 0022 1A6A     		ldr	r2, [r3, #32]
 966 0024 1443     		orrs	r4, r4, r2
 967              	.LVL88:
 968 0026 1C62     		str	r4, [r3, #32]
 969 0028 10BD     		pop	{r4, pc}
 970              	.L92:
 971 002a 00BF     		.align	2
 972              	.L91:
 973 002c 00000000 		.word	.LC0
 974 0030 00100240 		.word	1073876992
 975              		.cfi_endproc
 976              	.LFE73:
 977              		.size	RCC_RTCCLKConfig, .-RCC_RTCCLKConfig
 978              		.section	.text.RCC_RTCCLKCmd,"ax",%progbits
 979              		.align	2
 980              		.global	RCC_RTCCLKCmd
 981              		.thumb
 982              		.thumb_func
 983              		.type	RCC_RTCCLKCmd, %function
 984              	RCC_RTCCLKCmd:
 985              	.LFB74:
 986              		.loc 1 894 0
 987              		.cfi_startproc
 988              		@ args = 0, pretend = 0, frame = 0
 989              		@ frame_needed = 0, uses_anonymous_args = 0
 990              	.LVL89:
 991 0000 10B5     		push	{r4, lr}
 992              		.cfi_def_cfa_offset 8
 993              		.cfi_offset 4, -8
 994              		.cfi_offset 14, -4
 995 0002 0446     		mov	r4, r0
 996              		.loc 1 896 0
 997 0004 0128     		cmp	r0, #1
 998 0006 04D9     		bls	.L94
 999              		.loc 1 896 0 is_stmt 0 discriminator 1
 1000 0008 0348     		ldr	r0, .L96
 1001              	.LVL90:
 1002 000a 4FF46071 		mov	r1, #896
 1003 000e FFF7FEFF 		bl	assert_failed
 1004              	.LVL91:
 1005              	.L94:
 1006              		.loc 1 897 0 is_stmt 1
 1007 0012 024B     		ldr	r3, .L96+4
 1008 0014 1C60     		str	r4, [r3]
 1009 0016 10BD     		pop	{r4, pc}
 1010              	.L97:
 1011              		.align	2
 1012              	.L96:
 1013 0018 00000000 		.word	.LC0
 1014 001c 3C044242 		.word	1111622716
 1015              		.cfi_endproc
 1016              	.LFE74:
 1017              		.size	RCC_RTCCLKCmd, .-RCC_RTCCLKCmd
 1018              		.section	.text.RCC_GetClocksFreq,"ax",%progbits
 1019              		.align	2
 1020              		.global	RCC_GetClocksFreq
 1021              		.thumb
 1022              		.thumb_func
 1023              		.type	RCC_GetClocksFreq, %function
 1024              	RCC_GetClocksFreq:
 1025              	.LFB75:
 1026              		.loc 1 909 0
 1027              		.cfi_startproc
 1028              		@ args = 0, pretend = 0, frame = 0
 1029              		@ frame_needed = 0, uses_anonymous_args = 0
 1030              		@ link register save eliminated.
 1031              	.LVL92:
 1032 0000 10B4     		push	{r4}
 1033              		.cfi_def_cfa_offset 4
 1034              		.cfi_offset 4, -4
 1035              	.LVL93:
 1036              		.loc 1 921 0
 1037 0002 294B     		ldr	r3, .L108
 1038 0004 5B68     		ldr	r3, [r3, #4]
 1039 0006 03F00C03 		and	r3, r3, #12
 1040              	.LVL94:
 1041              		.loc 1 923 0
 1042 000a 042B     		cmp	r3, #4
 1043 000c 05D0     		beq	.L100
 1044 000e 082B     		cmp	r3, #8
 1045 0010 06D0     		beq	.L101
 1046 0012 13BB     		cbnz	r3, .L106
 1047              		.loc 1 926 0
 1048 0014 254B     		ldr	r3, .L108+4
 1049              	.LVL95:
 1050 0016 0360     		str	r3, [r0]
 1051              		.loc 1 927 0
 1052 0018 21E0     		b	.L103
 1053              	.LVL96:
 1054              	.L100:
 1055              		.loc 1 929 0
 1056 001a 244B     		ldr	r3, .L108+4
 1057              	.LVL97:
 1058 001c 0360     		str	r3, [r0]
 1059              		.loc 1 930 0
 1060 001e 1EE0     		b	.L103
 1061              	.LVL98:
 1062              	.L101:
 1063              		.loc 1 934 0
 1064 0020 214A     		ldr	r2, .L108
 1065 0022 5368     		ldr	r3, [r2, #4]
 1066              	.LVL99:
 1067              		.loc 1 935 0
 1068 0024 5268     		ldr	r2, [r2, #4]
 1069              	.LVL100:
 1070              		.loc 1 938 0
 1071 0026 C3F38343 		ubfx	r3, r3, #18, #4
 1072              	.LVL101:
 1073 002a 0233     		adds	r3, r3, #2
 1074              	.LVL102:
 1075              		.loc 1 940 0
 1076 002c 12F4803F 		tst	r2, #65536
 1077 0030 04D1     		bne	.L104
 1078              		.loc 1 942 0
 1079 0032 1F4A     		ldr	r2, .L108+8
 1080              	.LVL103:
 1081 0034 02FB03F3 		mul	r3, r2, r3
 1082              	.LVL104:
 1083 0038 0360     		str	r3, [r0]
 1084 003a 10E0     		b	.L103
 1085              	.LVL105:
 1086              	.L104:
 1087              		.loc 1 952 0
 1088 003c 1A4A     		ldr	r2, .L108
 1089              	.LVL106:
 1090 003e 5268     		ldr	r2, [r2, #4]
 1091 0040 12F4003F 		tst	r2, #131072
 1092 0044 04D0     		beq	.L105
 1093              		.loc 1 954 0
 1094 0046 1A4A     		ldr	r2, .L108+8
 1095 0048 02FB03F3 		mul	r3, r2, r3
 1096              	.LVL107:
 1097 004c 0360     		str	r3, [r0]
 1098 004e 06E0     		b	.L103
 1099              	.LVL108:
 1100              	.L105:
 1101              		.loc 1 958 0
 1102 0050 164A     		ldr	r2, .L108+4
 1103 0052 02FB03F3 		mul	r3, r2, r3
 1104              	.LVL109:
 1105 0056 0360     		str	r3, [r0]
 1106 0058 01E0     		b	.L103
 1107              	.LVL110:
 1108              	.L106:
 1109              		.loc 1 1002 0
 1110 005a 144B     		ldr	r3, .L108+4
 1111              	.LVL111:
 1112 005c 0360     		str	r3, [r0]
 1113              	.LVL112:
 1114              	.L103:
 1115              		.loc 1 1008 0
 1116 005e 124A     		ldr	r2, .L108
 1117 0060 5368     		ldr	r3, [r2, #4]
 1118              	.LVL113:
 1119              		.loc 1 1009 0
 1120 0062 C3F30313 		ubfx	r3, r3, #4, #4
 1121              	.LVL114:
 1122              		.loc 1 1010 0
 1123 0066 134C     		ldr	r4, .L108+12
 1124 0068 E15C     		ldrb	r1, [r4, r3]	@ zero_extendqisi2
 1125 006a C9B2     		uxtb	r1, r1
 1126              	.LVL115:
 1127              		.loc 1 1012 0
 1128 006c 0368     		ldr	r3, [r0]
 1129              	.LVL116:
 1130 006e CB40     		lsrs	r3, r3, r1
 1131 0070 4360     		str	r3, [r0, #4]
 1132              		.loc 1 1014 0
 1133 0072 5168     		ldr	r1, [r2, #4]
 1134              	.LVL117:
 1135              		.loc 1 1015 0
 1136 0074 C1F30221 		ubfx	r1, r1, #8, #3
 1137              	.LVL118:
 1138              		.loc 1 1016 0
 1139 0078 615C     		ldrb	r1, [r4, r1]	@ zero_extendqisi2
 1140              	.LVL119:
 1141 007a C9B2     		uxtb	r1, r1
 1142              	.LVL120:
 1143              		.loc 1 1018 0
 1144 007c 23FA01F1 		lsr	r1, r3, r1
 1145              	.LVL121:
 1146 0080 8160     		str	r1, [r0, #8]
 1147              		.loc 1 1020 0
 1148 0082 5168     		ldr	r1, [r2, #4]
 1149              	.LVL122:
 1150              		.loc 1 1021 0
 1151 0084 C1F3C221 		ubfx	r1, r1, #11, #3
 1152              	.LVL123:
 1153              		.loc 1 1022 0
 1154 0088 615C     		ldrb	r1, [r4, r1]	@ zero_extendqisi2
 1155              	.LVL124:
 1156 008a C9B2     		uxtb	r1, r1
 1157              	.LVL125:
 1158              		.loc 1 1024 0
 1159 008c CB40     		lsrs	r3, r3, r1
 1160 008e C360     		str	r3, [r0, #12]
 1161              		.loc 1 1026 0
 1162 0090 5268     		ldr	r2, [r2, #4]
 1163              	.LVL126:
 1164              		.loc 1 1027 0
 1165 0092 C2F38132 		ubfx	r2, r2, #14, #2
 1166              	.LVL127:
 1167              		.loc 1 1028 0
 1168 0096 0849     		ldr	r1, .L108+16
 1169              	.LVL128:
 1170 0098 8A5C     		ldrb	r2, [r1, r2]	@ zero_extendqisi2
 1171              	.LVL129:
 1172 009a D2B2     		uxtb	r2, r2
 1173              	.LVL130:
 1174              		.loc 1 1030 0
 1175 009c B3FBF2F3 		udiv	r3, r3, r2
 1176 00a0 0361     		str	r3, [r0, #16]
 1177              		.loc 1 1031 0
 1178 00a2 5DF8044B 		ldr	r4, [sp], #4
 1179              		.cfi_restore 4
 1180              		.cfi_def_cfa_offset 0
 1181 00a6 7047     		bx	lr
 1182              	.L109:
 1183              		.align	2
 1184              	.L108:
 1185 00a8 00100240 		.word	1073876992
 1186 00ac 00127A00 		.word	8000000
 1187 00b0 00093D00 		.word	4000000
 1188 00b4 00000000 		.word	.LANCHOR0
 1189 00b8 00000000 		.word	.LANCHOR1
 1190              		.cfi_endproc
 1191              	.LFE75:
 1192              		.size	RCC_GetClocksFreq, .-RCC_GetClocksFreq
 1193              		.section	.text.RCC_AHBPeriphClockCmd,"ax",%progbits
 1194              		.align	2
 1195              		.global	RCC_AHBPeriphClockCmd
 1196              		.thumb
 1197              		.thumb_func
 1198              		.type	RCC_AHBPeriphClockCmd, %function
 1199              	RCC_AHBPeriphClockCmd:
 1200              	.LFB76:
 1201              		.loc 1 1065 0
 1202              		.cfi_startproc
 1203              		@ args = 0, pretend = 0, frame = 0
 1204              		@ frame_needed = 0, uses_anonymous_args = 0
 1205              	.LVL131:
 1206 0000 38B5     		push	{r3, r4, r5, lr}
 1207              		.cfi_def_cfa_offset 16
 1208              		.cfi_offset 3, -16
 1209              		.cfi_offset 4, -12
 1210              		.cfi_offset 5, -8
 1211              		.cfi_offset 14, -4
 1212 0002 0446     		mov	r4, r0
 1213 0004 0D46     		mov	r5, r1
 1214              		.loc 1 1067 0
 1215 0006 20F4AA63 		bic	r3, r0, #1360
 1216 000a 23F00703 		bic	r3, r3, #7
 1217 000e 03B9     		cbnz	r3, .L111
 1218              		.loc 1 1067 0 is_stmt 0 discriminator 2
 1219 0010 20B9     		cbnz	r0, .L112
 1220              	.L111:
 1221              		.loc 1 1067 0 discriminator 3
 1222 0012 0C48     		ldr	r0, .L117
 1223              	.LVL132:
 1224 0014 40F22B41 		movw	r1, #1067
 1225              	.LVL133:
 1226 0018 FFF7FEFF 		bl	assert_failed
 1227              	.LVL134:
 1228              	.L112:
 1229              		.loc 1 1068 0 is_stmt 1
 1230 001c 012D     		cmp	r5, #1
 1231 001e 04D9     		bls	.L113
 1232              		.loc 1 1068 0 is_stmt 0 discriminator 1
 1233 0020 0848     		ldr	r0, .L117
 1234 0022 40F22C41 		movw	r1, #1068
 1235 0026 FFF7FEFF 		bl	assert_failed
 1236              	.LVL135:
 1237              	.L113:
 1238              		.loc 1 1070 0 is_stmt 1
 1239 002a 25B1     		cbz	r5, .L114
 1240              		.loc 1 1072 0
 1241 002c 064B     		ldr	r3, .L117+4
 1242 002e 5A69     		ldr	r2, [r3, #20]
 1243 0030 1443     		orrs	r4, r4, r2
 1244              	.LVL136:
 1245 0032 5C61     		str	r4, [r3, #20]
 1246 0034 38BD     		pop	{r3, r4, r5, pc}
 1247              	.LVL137:
 1248              	.L114:
 1249              		.loc 1 1076 0
 1250 0036 044A     		ldr	r2, .L117+4
 1251 0038 5369     		ldr	r3, [r2, #20]
 1252 003a 23EA0404 		bic	r4, r3, r4
 1253              	.LVL138:
 1254 003e 5461     		str	r4, [r2, #20]
 1255 0040 38BD     		pop	{r3, r4, r5, pc}
 1256              	.L118:
 1257 0042 00BF     		.align	2
 1258              	.L117:
 1259 0044 00000000 		.word	.LC0
 1260 0048 00100240 		.word	1073876992
 1261              		.cfi_endproc
 1262              	.LFE76:
 1263              		.size	RCC_AHBPeriphClockCmd, .-RCC_AHBPeriphClockCmd
 1264              		.section	.text.RCC_APB2PeriphClockCmd,"ax",%progbits
 1265              		.align	2
 1266              		.global	RCC_APB2PeriphClockCmd
 1267              		.thumb
 1268              		.thumb_func
 1269              		.type	RCC_APB2PeriphClockCmd, %function
 1270              	RCC_APB2PeriphClockCmd:
 1271              	.LFB77:
 1272              		.loc 1 1096 0
 1273              		.cfi_startproc
 1274              		@ args = 0, pretend = 0, frame = 0
 1275              		@ frame_needed = 0, uses_anonymous_args = 0
 1276              	.LVL139:
 1277 0000 38B5     		push	{r3, r4, r5, lr}
 1278              		.cfi_def_cfa_offset 16
 1279              		.cfi_offset 3, -16
 1280              		.cfi_offset 4, -12
 1281              		.cfi_offset 5, -8
 1282              		.cfi_offset 14, -4
 1283 0002 0446     		mov	r4, r0
 1284 0004 0D46     		mov	r5, r1
 1285              		.loc 1 1098 0
 1286 0006 0E4B     		ldr	r3, .L126
 1287 0008 0340     		ands	r3, r3, r0
 1288 000a 03B9     		cbnz	r3, .L120
 1289              		.loc 1 1098 0 is_stmt 0 discriminator 2
 1290 000c 20B9     		cbnz	r0, .L121
 1291              	.L120:
 1292              		.loc 1 1098 0 discriminator 3
 1293 000e 0D48     		ldr	r0, .L126+4
 1294              	.LVL140:
 1295 0010 40F24A41 		movw	r1, #1098
 1296              	.LVL141:
 1297 0014 FFF7FEFF 		bl	assert_failed
 1298              	.LVL142:
 1299              	.L121:
 1300              		.loc 1 1099 0 is_stmt 1
 1301 0018 012D     		cmp	r5, #1
 1302 001a 04D9     		bls	.L122
 1303              		.loc 1 1099 0 is_stmt 0 discriminator 1
 1304 001c 0948     		ldr	r0, .L126+4
 1305 001e 40F24B41 		movw	r1, #1099
 1306 0022 FFF7FEFF 		bl	assert_failed
 1307              	.LVL143:
 1308              	.L122:
 1309              		.loc 1 1100 0 is_stmt 1
 1310 0026 25B1     		cbz	r5, .L123
 1311              		.loc 1 1102 0
 1312 0028 074B     		ldr	r3, .L126+8
 1313 002a 9A69     		ldr	r2, [r3, #24]
 1314 002c 1443     		orrs	r4, r4, r2
 1315              	.LVL144:
 1316 002e 9C61     		str	r4, [r3, #24]
 1317 0030 38BD     		pop	{r3, r4, r5, pc}
 1318              	.LVL145:
 1319              	.L123:
 1320              		.loc 1 1106 0
 1321 0032 054A     		ldr	r2, .L126+8
 1322 0034 9369     		ldr	r3, [r2, #24]
 1323 0036 23EA0404 		bic	r4, r3, r4
 1324              	.LVL146:
 1325 003a 9461     		str	r4, [r2, #24]
 1326 003c 38BD     		pop	{r3, r4, r5, pc}
 1327              	.L127:
 1328 003e 00BF     		.align	2
 1329              	.L126:
 1330 0040 0200C0FF 		.word	-4194302
 1331 0044 00000000 		.word	.LC0
 1332 0048 00100240 		.word	1073876992
 1333              		.cfi_endproc
 1334              	.LFE77:
 1335              		.size	RCC_APB2PeriphClockCmd, .-RCC_APB2PeriphClockCmd
 1336              		.section	.text.RCC_APB1PeriphClockCmd,"ax",%progbits
 1337              		.align	2
 1338              		.global	RCC_APB1PeriphClockCmd
 1339              		.thumb
 1340              		.thumb_func
 1341              		.type	RCC_APB1PeriphClockCmd, %function
 1342              	RCC_APB1PeriphClockCmd:
 1343              	.LFB78:
 1344              		.loc 1 1127 0
 1345              		.cfi_startproc
 1346              		@ args = 0, pretend = 0, frame = 0
 1347              		@ frame_needed = 0, uses_anonymous_args = 0
 1348              	.LVL147:
 1349 0000 38B5     		push	{r3, r4, r5, lr}
 1350              		.cfi_def_cfa_offset 16
 1351              		.cfi_offset 3, -16
 1352              		.cfi_offset 4, -12
 1353              		.cfi_offset 5, -8
 1354              		.cfi_offset 14, -4
 1355 0002 0446     		mov	r4, r0
 1356 0004 0D46     		mov	r5, r1
 1357              		.loc 1 1129 0
 1358 0006 0E4B     		ldr	r3, .L135
 1359 0008 1842     		tst	r0, r3
 1360 000a 00D1     		bne	.L129
 1361              		.loc 1 1129 0 is_stmt 0 discriminator 2
 1362 000c 20B9     		cbnz	r0, .L130
 1363              	.L129:
 1364              		.loc 1 1129 0 discriminator 3
 1365 000e 0D48     		ldr	r0, .L135+4
 1366              	.LVL148:
 1367 0010 40F26941 		movw	r1, #1129
 1368              	.LVL149:
 1369 0014 FFF7FEFF 		bl	assert_failed
 1370              	.LVL150:
 1371              	.L130:
 1372              		.loc 1 1130 0 is_stmt 1
 1373 0018 012D     		cmp	r5, #1
 1374 001a 04D9     		bls	.L131
 1375              		.loc 1 1130 0 is_stmt 0 discriminator 1
 1376 001c 0948     		ldr	r0, .L135+4
 1377 001e 40F26A41 		movw	r1, #1130
 1378 0022 FFF7FEFF 		bl	assert_failed
 1379              	.LVL151:
 1380              	.L131:
 1381              		.loc 1 1131 0 is_stmt 1
 1382 0026 25B1     		cbz	r5, .L132
 1383              		.loc 1 1133 0
 1384 0028 074B     		ldr	r3, .L135+8
 1385 002a DA69     		ldr	r2, [r3, #28]
 1386 002c 1443     		orrs	r4, r4, r2
 1387              	.LVL152:
 1388 002e DC61     		str	r4, [r3, #28]
 1389 0030 38BD     		pop	{r3, r4, r5, pc}
 1390              	.LVL153:
 1391              	.L132:
 1392              		.loc 1 1137 0
 1393 0032 054A     		ldr	r2, .L135+8
 1394 0034 D369     		ldr	r3, [r2, #28]
 1395 0036 23EA0404 		bic	r4, r3, r4
 1396              	.LVL154:
 1397 003a D461     		str	r4, [r2, #28]
 1398 003c 38BD     		pop	{r3, r4, r5, pc}
 1399              	.L136:
 1400 003e 00BF     		.align	2
 1401              	.L135:
 1402 0040 00360181 		.word	-2130627072
 1403 0044 00000000 		.word	.LC0
 1404 0048 00100240 		.word	1073876992
 1405              		.cfi_endproc
 1406              	.LFE78:
 1407              		.size	RCC_APB1PeriphClockCmd, .-RCC_APB1PeriphClockCmd
 1408              		.section	.text.RCC_APB2PeriphResetCmd,"ax",%progbits
 1409              		.align	2
 1410              		.global	RCC_APB2PeriphResetCmd
 1411              		.thumb
 1412              		.thumb_func
 1413              		.type	RCC_APB2PeriphResetCmd, %function
 1414              	RCC_APB2PeriphResetCmd:
 1415              	.LFB79:
 1416              		.loc 1 1186 0
 1417              		.cfi_startproc
 1418              		@ args = 0, pretend = 0, frame = 0
 1419              		@ frame_needed = 0, uses_anonymous_args = 0
 1420              	.LVL155:
 1421 0000 38B5     		push	{r3, r4, r5, lr}
 1422              		.cfi_def_cfa_offset 16
 1423              		.cfi_offset 3, -16
 1424              		.cfi_offset 4, -12
 1425              		.cfi_offset 5, -8
 1426              		.cfi_offset 14, -4
 1427 0002 0446     		mov	r4, r0
 1428 0004 0D46     		mov	r5, r1
 1429              		.loc 1 1188 0
 1430 0006 0E4B     		ldr	r3, .L144
 1431 0008 0340     		ands	r3, r3, r0
 1432 000a 03B9     		cbnz	r3, .L138
 1433              		.loc 1 1188 0 is_stmt 0 discriminator 2
 1434 000c 20B9     		cbnz	r0, .L139
 1435              	.L138:
 1436              		.loc 1 1188 0 discriminator 3
 1437 000e 0D48     		ldr	r0, .L144+4
 1438              	.LVL156:
 1439 0010 40F2A441 		movw	r1, #1188
 1440              	.LVL157:
 1441 0014 FFF7FEFF 		bl	assert_failed
 1442              	.LVL158:
 1443              	.L139:
 1444              		.loc 1 1189 0 is_stmt 1
 1445 0018 012D     		cmp	r5, #1
 1446 001a 04D9     		bls	.L140
 1447              		.loc 1 1189 0 is_stmt 0 discriminator 1
 1448 001c 0948     		ldr	r0, .L144+4
 1449 001e 40F2A541 		movw	r1, #1189
 1450 0022 FFF7FEFF 		bl	assert_failed
 1451              	.LVL159:
 1452              	.L140:
 1453              		.loc 1 1190 0 is_stmt 1
 1454 0026 25B1     		cbz	r5, .L141
 1455              		.loc 1 1192 0
 1456 0028 074B     		ldr	r3, .L144+8
 1457 002a DA68     		ldr	r2, [r3, #12]
 1458 002c 1443     		orrs	r4, r4, r2
 1459              	.LVL160:
 1460 002e DC60     		str	r4, [r3, #12]
 1461 0030 38BD     		pop	{r3, r4, r5, pc}
 1462              	.LVL161:
 1463              	.L141:
 1464              		.loc 1 1196 0
 1465 0032 054A     		ldr	r2, .L144+8
 1466 0034 D368     		ldr	r3, [r2, #12]
 1467 0036 23EA0404 		bic	r4, r3, r4
 1468              	.LVL162:
 1469 003a D460     		str	r4, [r2, #12]
 1470 003c 38BD     		pop	{r3, r4, r5, pc}
 1471              	.L145:
 1472 003e 00BF     		.align	2
 1473              	.L144:
 1474 0040 0200C0FF 		.word	-4194302
 1475 0044 00000000 		.word	.LC0
 1476 0048 00100240 		.word	1073876992
 1477              		.cfi_endproc
 1478              	.LFE79:
 1479              		.size	RCC_APB2PeriphResetCmd, .-RCC_APB2PeriphResetCmd
 1480              		.section	.text.RCC_APB1PeriphResetCmd,"ax",%progbits
 1481              		.align	2
 1482              		.global	RCC_APB1PeriphResetCmd
 1483              		.thumb
 1484              		.thumb_func
 1485              		.type	RCC_APB1PeriphResetCmd, %function
 1486              	RCC_APB1PeriphResetCmd:
 1487              	.LFB80:
 1488              		.loc 1 1217 0
 1489              		.cfi_startproc
 1490              		@ args = 0, pretend = 0, frame = 0
 1491              		@ frame_needed = 0, uses_anonymous_args = 0
 1492              	.LVL163:
 1493 0000 38B5     		push	{r3, r4, r5, lr}
 1494              		.cfi_def_cfa_offset 16
 1495              		.cfi_offset 3, -16
 1496              		.cfi_offset 4, -12
 1497              		.cfi_offset 5, -8
 1498              		.cfi_offset 14, -4
 1499 0002 0446     		mov	r4, r0
 1500 0004 0D46     		mov	r5, r1
 1501              		.loc 1 1219 0
 1502 0006 0E4B     		ldr	r3, .L153
 1503 0008 1842     		tst	r0, r3
 1504 000a 00D1     		bne	.L147
 1505              		.loc 1 1219 0 is_stmt 0 discriminator 2
 1506 000c 20B9     		cbnz	r0, .L148
 1507              	.L147:
 1508              		.loc 1 1219 0 discriminator 3
 1509 000e 0D48     		ldr	r0, .L153+4
 1510              	.LVL164:
 1511 0010 40F2C341 		movw	r1, #1219
 1512              	.LVL165:
 1513 0014 FFF7FEFF 		bl	assert_failed
 1514              	.LVL166:
 1515              	.L148:
 1516              		.loc 1 1220 0 is_stmt 1
 1517 0018 012D     		cmp	r5, #1
 1518 001a 04D9     		bls	.L149
 1519              		.loc 1 1220 0 is_stmt 0 discriminator 1
 1520 001c 0948     		ldr	r0, .L153+4
 1521 001e 40F2C441 		movw	r1, #1220
 1522 0022 FFF7FEFF 		bl	assert_failed
 1523              	.LVL167:
 1524              	.L149:
 1525              		.loc 1 1221 0 is_stmt 1
 1526 0026 25B1     		cbz	r5, .L150
 1527              		.loc 1 1223 0
 1528 0028 074B     		ldr	r3, .L153+8
 1529 002a 1A69     		ldr	r2, [r3, #16]
 1530 002c 1443     		orrs	r4, r4, r2
 1531              	.LVL168:
 1532 002e 1C61     		str	r4, [r3, #16]
 1533 0030 38BD     		pop	{r3, r4, r5, pc}
 1534              	.LVL169:
 1535              	.L150:
 1536              		.loc 1 1227 0
 1537 0032 054A     		ldr	r2, .L153+8
 1538 0034 1369     		ldr	r3, [r2, #16]
 1539 0036 23EA0404 		bic	r4, r3, r4
 1540              	.LVL170:
 1541 003a 1461     		str	r4, [r2, #16]
 1542 003c 38BD     		pop	{r3, r4, r5, pc}
 1543              	.L154:
 1544 003e 00BF     		.align	2
 1545              	.L153:
 1546 0040 00360181 		.word	-2130627072
 1547 0044 00000000 		.word	.LC0
 1548 0048 00100240 		.word	1073876992
 1549              		.cfi_endproc
 1550              	.LFE80:
 1551              		.size	RCC_APB1PeriphResetCmd, .-RCC_APB1PeriphResetCmd
 1552              		.section	.text.RCC_BackupResetCmd,"ax",%progbits
 1553              		.align	2
 1554              		.global	RCC_BackupResetCmd
 1555              		.thumb
 1556              		.thumb_func
 1557              		.type	RCC_BackupResetCmd, %function
 1558              	RCC_BackupResetCmd:
 1559              	.LFB81:
 1560              		.loc 1 1238 0
 1561              		.cfi_startproc
 1562              		@ args = 0, pretend = 0, frame = 0
 1563              		@ frame_needed = 0, uses_anonymous_args = 0
 1564              	.LVL171:
 1565 0000 10B5     		push	{r4, lr}
 1566              		.cfi_def_cfa_offset 8
 1567              		.cfi_offset 4, -8
 1568              		.cfi_offset 14, -4
 1569 0002 0446     		mov	r4, r0
 1570              		.loc 1 1240 0
 1571 0004 0128     		cmp	r0, #1
 1572 0006 04D9     		bls	.L156
 1573              		.loc 1 1240 0 is_stmt 0 discriminator 1
 1574 0008 0348     		ldr	r0, .L158
 1575              	.LVL172:
 1576 000a 4FF49B61 		mov	r1, #1240
 1577 000e FFF7FEFF 		bl	assert_failed
 1578              	.LVL173:
 1579              	.L156:
 1580              		.loc 1 1241 0 is_stmt 1
 1581 0012 024B     		ldr	r3, .L158+4
 1582 0014 1C60     		str	r4, [r3]
 1583 0016 10BD     		pop	{r4, pc}
 1584              	.L159:
 1585              		.align	2
 1586              	.L158:
 1587 0018 00000000 		.word	.LC0
 1588 001c 40044242 		.word	1111622720
 1589              		.cfi_endproc
 1590              	.LFE81:
 1591              		.size	RCC_BackupResetCmd, .-RCC_BackupResetCmd
 1592              		.section	.text.RCC_ClockSecuritySystemCmd,"ax",%progbits
 1593              		.align	2
 1594              		.global	RCC_ClockSecuritySystemCmd
 1595              		.thumb
 1596              		.thumb_func
 1597              		.type	RCC_ClockSecuritySystemCmd, %function
 1598              	RCC_ClockSecuritySystemCmd:
 1599              	.LFB82:
 1600              		.loc 1 1251 0
 1601              		.cfi_startproc
 1602              		@ args = 0, pretend = 0, frame = 0
 1603              		@ frame_needed = 0, uses_anonymous_args = 0
 1604              	.LVL174:
 1605 0000 10B5     		push	{r4, lr}
 1606              		.cfi_def_cfa_offset 8
 1607              		.cfi_offset 4, -8
 1608              		.cfi_offset 14, -4
 1609 0002 0446     		mov	r4, r0
 1610              		.loc 1 1253 0
 1611 0004 0128     		cmp	r0, #1
 1612 0006 04D9     		bls	.L161
 1613              		.loc 1 1253 0 is_stmt 0 discriminator 1
 1614 0008 0348     		ldr	r0, .L163
 1615              	.LVL175:
 1616 000a 40F2E541 		movw	r1, #1253
 1617 000e FFF7FEFF 		bl	assert_failed
 1618              	.LVL176:
 1619              	.L161:
 1620              		.loc 1 1254 0 is_stmt 1
 1621 0012 024B     		ldr	r3, .L163+4
 1622 0014 1C60     		str	r4, [r3]
 1623 0016 10BD     		pop	{r4, pc}
 1624              	.L164:
 1625              		.align	2
 1626              	.L163:
 1627 0018 00000000 		.word	.LC0
 1628 001c 4C004242 		.word	1111621708
 1629              		.cfi_endproc
 1630              	.LFE82:
 1631              		.size	RCC_ClockSecuritySystemCmd, .-RCC_ClockSecuritySystemCmd
 1632              		.section	.text.RCC_MCOConfig,"ax",%progbits
 1633              		.align	2
 1634              		.global	RCC_MCOConfig
 1635              		.thumb
 1636              		.thumb_func
 1637              		.type	RCC_MCOConfig, %function
 1638              	RCC_MCOConfig:
 1639              	.LFB83:
 1640              		.loc 1 1283 0
 1641              		.cfi_startproc
 1642              		@ args = 0, pretend = 0, frame = 0
 1643              		@ frame_needed = 0, uses_anonymous_args = 0
 1644              	.LVL177:
 1645 0000 10B5     		push	{r4, lr}
 1646              		.cfi_def_cfa_offset 8
 1647              		.cfi_offset 4, -8
 1648              		.cfi_offset 14, -4
 1649              		.loc 1 1285 0
 1650 0002 0446     		mov	r4, r0
 1651 0004 60B1     		cbz	r0, .L166
 1652              		.loc 1 1285 0 is_stmt 0 discriminator 1
 1653 0006 0528     		cmp	r0, #5
 1654 0008 0AD0     		beq	.L166
 1655              		.loc 1 1285 0 discriminator 2
 1656 000a 0428     		cmp	r0, #4
 1657 000c 08D0     		beq	.L166
 1658              		.loc 1 1285 0 discriminator 3
 1659 000e 0628     		cmp	r0, #6
 1660 0010 06D0     		beq	.L166
 1661              		.loc 1 1285 0 discriminator 4
 1662 0012 0728     		cmp	r0, #7
 1663 0014 04D0     		beq	.L166
 1664              		.loc 1 1285 0 discriminator 5
 1665 0016 0448     		ldr	r0, .L168
 1666              	.LVL178:
 1667 0018 40F20551 		movw	r1, #1285
 1668 001c FFF7FEFF 		bl	assert_failed
 1669              	.LVL179:
 1670              	.L166:
 1671              		.loc 1 1288 0 is_stmt 1
 1672 0020 024B     		ldr	r3, .L168+4
 1673 0022 1C70     		strb	r4, [r3]
 1674 0024 10BD     		pop	{r4, pc}
 1675              	.L169:
 1676 0026 00BF     		.align	2
 1677              	.L168:
 1678 0028 00000000 		.word	.LC0
 1679 002c 07100240 		.word	1073876999
 1680              		.cfi_endproc
 1681              	.LFE83:
 1682              		.size	RCC_MCOConfig, .-RCC_MCOConfig
 1683              		.section	.text.RCC_GetFlagStatus,"ax",%progbits
 1684              		.align	2
 1685              		.global	RCC_GetFlagStatus
 1686              		.thumb
 1687              		.thumb_func
 1688              		.type	RCC_GetFlagStatus, %function
 1689              	RCC_GetFlagStatus:
 1690              	.LFB84:
 1691              		.loc 1 1327 0
 1692              		.cfi_startproc
 1693              		@ args = 0, pretend = 0, frame = 0
 1694              		@ frame_needed = 0, uses_anonymous_args = 0
 1695              	.LVL180:
 1696 0000 10B5     		push	{r4, lr}
 1697              		.cfi_def_cfa_offset 8
 1698              		.cfi_offset 4, -8
 1699              		.cfi_offset 14, -4
 1700 0002 0446     		mov	r4, r0
 1701              	.LVL181:
 1702              		.loc 1 1332 0
 1703 0004 2128     		cmp	r0, #33
 1704 0006 18D0     		beq	.L171
 1705              		.loc 1 1332 0 is_stmt 0 discriminator 1
 1706 0008 3128     		cmp	r0, #49
 1707 000a 16D0     		beq	.L171
 1708              		.loc 1 1332 0 discriminator 2
 1709 000c 3928     		cmp	r0, #57
 1710 000e 14D0     		beq	.L171
 1711              		.loc 1 1332 0 discriminator 3
 1712 0010 4128     		cmp	r0, #65
 1713 0012 12D0     		beq	.L171
 1714              		.loc 1 1332 0 discriminator 4
 1715 0014 6128     		cmp	r0, #97
 1716 0016 10D0     		beq	.L171
 1717              		.loc 1 1332 0 discriminator 5
 1718 0018 7A28     		cmp	r0, #122
 1719 001a 0ED0     		beq	.L171
 1720              		.loc 1 1332 0 discriminator 6
 1721 001c 7B28     		cmp	r0, #123
 1722 001e 0CD0     		beq	.L171
 1723              		.loc 1 1332 0 discriminator 7
 1724 0020 7C28     		cmp	r0, #124
 1725 0022 0AD0     		beq	.L171
 1726              		.loc 1 1332 0 discriminator 8
 1727 0024 7D28     		cmp	r0, #125
 1728 0026 08D0     		beq	.L171
 1729              		.loc 1 1332 0 discriminator 9
 1730 0028 7E28     		cmp	r0, #126
 1731 002a 06D0     		beq	.L171
 1732              		.loc 1 1332 0 discriminator 10
 1733 002c 7F28     		cmp	r0, #127
 1734 002e 04D0     		beq	.L171
 1735              		.loc 1 1332 0 discriminator 11
 1736 0030 0D48     		ldr	r0, .L178
 1737              	.LVL182:
 1738 0032 40F23451 		movw	r1, #1332
 1739 0036 FFF7FEFF 		bl	assert_failed
 1740              	.LVL183:
 1741              	.L171:
 1742              		.loc 1 1335 0 is_stmt 1
 1743 003a 6309     		lsrs	r3, r4, #5
 1744              	.LVL184:
 1745              		.loc 1 1336 0
 1746 003c 012B     		cmp	r3, #1
 1747 003e 02D1     		bne	.L172
 1748              		.loc 1 1338 0
 1749 0040 0A4B     		ldr	r3, .L178+4
 1750              	.LVL185:
 1751 0042 1B68     		ldr	r3, [r3]
 1752              	.LVL186:
 1753 0044 06E0     		b	.L173
 1754              	.LVL187:
 1755              	.L172:
 1756              		.loc 1 1340 0
 1757 0046 022B     		cmp	r3, #2
 1758 0048 02D1     		bne	.L174
 1759              		.loc 1 1342 0
 1760 004a 084B     		ldr	r3, .L178+4
 1761              	.LVL188:
 1762 004c 1B6A     		ldr	r3, [r3, #32]
 1763              	.LVL189:
 1764 004e 01E0     		b	.L173
 1765              	.LVL190:
 1766              	.L174:
 1767              		.loc 1 1346 0
 1768 0050 064B     		ldr	r3, .L178+4
 1769              	.LVL191:
 1770 0052 5B6A     		ldr	r3, [r3, #36]
 1771              	.LVL192:
 1772              	.L173:
 1773              		.loc 1 1350 0
 1774 0054 04F01F04 		and	r4, r4, #31
 1775              	.LVL193:
 1776              		.loc 1 1351 0
 1777 0058 E340     		lsrs	r3, r3, r4
 1778              	.LVL194:
 1779 005a 13F0010F 		tst	r3, #1
 1780 005e 01D0     		beq	.L176
 1781              		.loc 1 1353 0
 1782 0060 0120     		movs	r0, #1
 1783 0062 10BD     		pop	{r4, pc}
 1784              	.LVL195:
 1785              	.L176:
 1786              		.loc 1 1357 0
 1787 0064 0020     		movs	r0, #0
 1788              	.LVL196:
 1789              		.loc 1 1362 0
 1790 0066 10BD     		pop	{r4, pc}
 1791              	.LVL197:
 1792              	.L179:
 1793              		.align	2
 1794              	.L178:
 1795 0068 00000000 		.word	.LC0
 1796 006c 00100240 		.word	1073876992
 1797              		.cfi_endproc
 1798              	.LFE84:
 1799              		.size	RCC_GetFlagStatus, .-RCC_GetFlagStatus
 1800              		.section	.text.RCC_WaitForHSEStartUp,"ax",%progbits
 1801              		.align	2
 1802              		.global	RCC_WaitForHSEStartUp
 1803              		.thumb
 1804              		.thumb_func
 1805              		.type	RCC_WaitForHSEStartUp, %function
 1806              	RCC_WaitForHSEStartUp:
 1807              	.LFB58:
 1808              		.loc 1 305 0
 1809              		.cfi_startproc
 1810              		@ args = 0, pretend = 0, frame = 8
 1811              		@ frame_needed = 0, uses_anonymous_args = 0
 1812 0000 00B5     		push	{lr}
 1813              		.cfi_def_cfa_offset 4
 1814              		.cfi_offset 14, -4
 1815 0002 83B0     		sub	sp, sp, #12
 1816              		.cfi_def_cfa_offset 16
 1817              		.loc 1 306 0
 1818 0004 0023     		movs	r3, #0
 1819 0006 0193     		str	r3, [sp, #4]
 1820              	.LVL198:
 1821              	.L182:
 1822              		.loc 1 313 0 discriminator 2
 1823 0008 3120     		movs	r0, #49
 1824 000a FFF7FEFF 		bl	RCC_GetFlagStatus
 1825              	.LVL199:
 1826              		.loc 1 314 0 discriminator 2
 1827 000e 019B     		ldr	r3, [sp, #4]
 1828 0010 0133     		adds	r3, r3, #1
 1829 0012 0193     		str	r3, [sp, #4]
 1830              		.loc 1 315 0 discriminator 2
 1831 0014 019B     		ldr	r3, [sp, #4]
 1832 0016 B3F5A06F 		cmp	r3, #1280
 1833 001a 01D0     		beq	.L181
 1834              		.loc 1 315 0 is_stmt 0 discriminator 1
 1835 001c 0028     		cmp	r0, #0
 1836 001e F3D0     		beq	.L182
 1837              	.L181:
 1838              		.loc 1 317 0 is_stmt 1
 1839 0020 3120     		movs	r0, #49
 1840              	.LVL200:
 1841 0022 FFF7FEFF 		bl	RCC_GetFlagStatus
 1842              	.LVL201:
 1843 0026 08B1     		cbz	r0, .L184
 1844              		.loc 1 319 0
 1845 0028 0120     		movs	r0, #1
 1846 002a 00E0     		b	.L183
 1847              	.L184:
 1848              		.loc 1 323 0
 1849 002c 0020     		movs	r0, #0
 1850              	.L183:
 1851              	.LVL202:
 1852              		.loc 1 326 0
 1853 002e 03B0     		add	sp, sp, #12
 1854              		.cfi_def_cfa_offset 4
 1855              		@ sp needed
 1856 0030 5DF804FB 		ldr	pc, [sp], #4
 1857              		.cfi_endproc
 1858              	.LFE58:
 1859              		.size	RCC_WaitForHSEStartUp, .-RCC_WaitForHSEStartUp
 1860              		.section	.text.RCC_ClearFlag,"ax",%progbits
 1861              		.align	2
 1862              		.global	RCC_ClearFlag
 1863              		.thumb
 1864              		.thumb_func
 1865              		.type	RCC_ClearFlag, %function
 1866              	RCC_ClearFlag:
 1867              	.LFB85:
 1868              		.loc 1 1372 0
 1869              		.cfi_startproc
 1870              		@ args = 0, pretend = 0, frame = 0
 1871              		@ frame_needed = 0, uses_anonymous_args = 0
 1872              		@ link register save eliminated.
 1873              		.loc 1 1374 0
 1874 0000 024A     		ldr	r2, .L187
 1875 0002 536A     		ldr	r3, [r2, #36]
 1876 0004 43F08073 		orr	r3, r3, #16777216
 1877 0008 5362     		str	r3, [r2, #36]
 1878 000a 7047     		bx	lr
 1879              	.L188:
 1880              		.align	2
 1881              	.L187:
 1882 000c 00100240 		.word	1073876992
 1883              		.cfi_endproc
 1884              	.LFE85:
 1885              		.size	RCC_ClearFlag, .-RCC_ClearFlag
 1886              		.section	.text.RCC_GetITStatus,"ax",%progbits
 1887              		.align	2
 1888              		.global	RCC_GetITStatus
 1889              		.thumb
 1890              		.thumb_func
 1891              		.type	RCC_GetITStatus, %function
 1892              	RCC_GetITStatus:
 1893              	.LFB86:
 1894              		.loc 1 1403 0
 1895              		.cfi_startproc
 1896              		@ args = 0, pretend = 0, frame = 0
 1897              		@ frame_needed = 0, uses_anonymous_args = 0
 1898              	.LVL203:
 1899 0000 10B5     		push	{r4, lr}
 1900              		.cfi_def_cfa_offset 8
 1901              		.cfi_offset 4, -8
 1902              		.cfi_offset 14, -4
 1903 0002 0446     		mov	r4, r0
 1904              	.LVL204:
 1905              		.loc 1 1406 0
 1906 0004 431E     		subs	r3, r0, #1
 1907 0006 DBB2     		uxtb	r3, r3
 1908 0008 012B     		cmp	r3, #1
 1909 000a 0CD9     		bls	.L190
 1910              		.loc 1 1406 0 is_stmt 0 discriminator 1
 1911 000c 0428     		cmp	r0, #4
 1912 000e 0AD0     		beq	.L190
 1913              		.loc 1 1406 0 discriminator 2
 1914 0010 0828     		cmp	r0, #8
 1915 0012 08D0     		beq	.L190
 1916              		.loc 1 1406 0 discriminator 3
 1917 0014 1028     		cmp	r0, #16
 1918 0016 06D0     		beq	.L190
 1919              		.loc 1 1406 0 discriminator 4
 1920 0018 8028     		cmp	r0, #128
 1921 001a 04D0     		beq	.L190
 1922              		.loc 1 1406 0 discriminator 5
 1923 001c 0648     		ldr	r0, .L194
 1924              	.LVL205:
 1925 001e 40F27E51 		movw	r1, #1406
 1926 0022 FFF7FEFF 		bl	assert_failed
 1927              	.LVL206:
 1928              	.L190:
 1929              		.loc 1 1409 0 is_stmt 1
 1930 0026 054B     		ldr	r3, .L194+4
 1931 0028 9B68     		ldr	r3, [r3, #8]
 1932 002a 2342     		tst	r3, r4
 1933 002c 01D0     		beq	.L192
 1934              		.loc 1 1411 0
 1935 002e 0120     		movs	r0, #1
 1936 0030 10BD     		pop	{r4, pc}
 1937              	.L192:
 1938              		.loc 1 1415 0
 1939 0032 0020     		movs	r0, #0
 1940              	.LVL207:
 1941              		.loc 1 1420 0
 1942 0034 10BD     		pop	{r4, pc}
 1943              	.L195:
 1944 0036 00BF     		.align	2
 1945              	.L194:
 1946 0038 00000000 		.word	.LC0
 1947 003c 00100240 		.word	1073876992
 1948              		.cfi_endproc
 1949              	.LFE86:
 1950              		.size	RCC_GetITStatus, .-RCC_GetITStatus
 1951              		.section	.text.RCC_ClearITPendingBit,"ax",%progbits
 1952              		.align	2
 1953              		.global	RCC_ClearITPendingBit
 1954              		.thumb
 1955              		.thumb_func
 1956              		.type	RCC_ClearITPendingBit, %function
 1957              	RCC_ClearITPendingBit:
 1958              	.LFB87:
 1959              		.loc 1 1449 0
 1960              		.cfi_startproc
 1961              		@ args = 0, pretend = 0, frame = 0
 1962              		@ frame_needed = 0, uses_anonymous_args = 0
 1963              	.LVL208:
 1964 0000 10B5     		push	{r4, lr}
 1965              		.cfi_def_cfa_offset 8
 1966              		.cfi_offset 4, -8
 1967              		.cfi_offset 14, -4
 1968 0002 0446     		mov	r4, r0
 1969              		.loc 1 1451 0
 1970 0004 10F0600F 		tst	r0, #96
 1971 0008 00D1     		bne	.L197
 1972              		.loc 1 1451 0 is_stmt 0 discriminator 2
 1973 000a 20B9     		cbnz	r0, .L198
 1974              	.L197:
 1975              		.loc 1 1451 0 discriminator 3
 1976 000c 0348     		ldr	r0, .L200
 1977              	.LVL209:
 1978 000e 40F2AB51 		movw	r1, #1451
 1979 0012 FFF7FEFF 		bl	assert_failed
 1980              	.LVL210:
 1981              	.L198:
 1982              		.loc 1 1455 0 is_stmt 1
 1983 0016 024B     		ldr	r3, .L200+4
 1984 0018 1C70     		strb	r4, [r3]
 1985 001a 10BD     		pop	{r4, pc}
 1986              	.L201:
 1987              		.align	2
 1988              	.L200:
 1989 001c 00000000 		.word	.LC0
 1990 0020 0A100240 		.word	1073877002
 1991              		.cfi_endproc
 1992              	.LFE87:
 1993              		.size	RCC_ClearITPendingBit, .-RCC_ClearITPendingBit
 1994              		.section	.data.ADCPrescTable,"aw",%progbits
 1995              		.align	2
 1996              		.set	.LANCHOR1,. + 0
 1997              		.type	ADCPrescTable, %object
 1998              		.size	ADCPrescTable, 4
 1999              	ADCPrescTable:
 2000 0000 02       		.byte	2
 2001 0001 04       		.byte	4
 2002 0002 06       		.byte	6
 2003 0003 08       		.byte	8
 2004              		.section	.rodata.str1.4,"aMS",%progbits,1
 2005              		.align	2
 2006              	.LC0:
 2007 0000 2E2E2F73 		.ascii	"../system/src/stm32f1-stdperiph/stm32f10x_rcc.c\000"
 2007      79737465 
 2007      6D2F7372 
 2007      632F7374 
 2007      6D333266 
 2008              		.section	.data.APBAHBPrescTable,"aw",%progbits
 2009              		.align	2
 2010              		.set	.LANCHOR0,. + 0
 2011              		.type	APBAHBPrescTable, %object
 2012              		.size	APBAHBPrescTable, 16
 2013              	APBAHBPrescTable:
 2014 0000 00       		.byte	0
 2015 0001 00       		.byte	0
 2016 0002 00       		.byte	0
 2017 0003 00       		.byte	0
 2018 0004 01       		.byte	1
 2019 0005 02       		.byte	2
 2020 0006 03       		.byte	3
 2021 0007 04       		.byte	4
 2022 0008 01       		.byte	1
 2023 0009 02       		.byte	2
 2024 000a 03       		.byte	3
 2025 000b 04       		.byte	4
 2026 000c 06       		.byte	6
 2027 000d 07       		.byte	7
 2028 000e 08       		.byte	8
 2029 000f 09       		.byte	9
 2030              		.text
 2031              	.Letext0:
 2032              		.file 2 "c:\\program files (x86)\\gnu tools arm embedded\\4.9 2015q1\\lib\\gcc\\arm-none-eabi\\4.9
 2033              		.file 3 "../system/include/cmsis/stm32f10x.h"
 2034              		.file 4 "../system/include/stm32f1-stdperiph/stm32f10x_rcc.h"
 2035              		.file 5 "../system/include/cmsis/core_cm3.h"
 2036              		.file 6 "../include/stm32f10x_conf.h"