   1              		.syntax unified
   2              		.cpu cortex-m3
   3              		.fpu softvfp
   4              		.eabi_attribute 20, 1
   5              		.eabi_attribute 21, 1
   6              		.eabi_attribute 23, 3
   7              		.eabi_attribute 24, 1
   8              		.eabi_attribute 25, 1
   9              		.eabi_attribute 26, 1
  10              		.eabi_attribute 30, 1
  11              		.eabi_attribute 34, 1
  12              		.eabi_attribute 18, 4
  13              		.thumb
  14              		.file	"task.cpp"
  15              		.text
  16              	.Ltext0:
  17              		.cfi_sections	.debug_frame
  18              		.section	.text._ZN2OS4Task4_EndEv,"ax",%progbits
  19              		.align	2
  20              		.global	_ZN2OS4Task4_EndEv
  21              		.thumb
  22              		.thumb_func
  23              		.type	_ZN2OS4Task4_EndEv, %function
  24              	_ZN2OS4Task4_EndEv:
  25              	.LFB57:
  26              		.file 1 "../src/os/task.cpp"
  27              		.loc 1 32 0
  28              		.cfi_startproc
  29              		@ args = 0, pretend = 0, frame = 0
  30              		@ frame_needed = 0, uses_anonymous_args = 0
  31              		@ link register save eliminated.
  32              	.LVL0:
  33              		.loc 1 33 0
  34 0000 0023     		movs	r3, #0
  35 0002 0376     		strb	r3, [r0, #24]
  36 0004 7047     		bx	lr
  37              		.cfi_endproc
  38              	.LFE57:
  39              		.size	_ZN2OS4Task4_EndEv, .-_ZN2OS4Task4_EndEv
  40 0006 00BF     		.section	.text._ZN2OSL12_TaskCleanUpEv,"ax",%progbits
  41              		.align	2
  42              		.thumb
  43              		.thumb_func
  44              		.type	_ZN2OSL12_TaskCleanUpEv, %function
  45              	_ZN2OSL12_TaskCleanUpEv:
  46              	.LFB56:
  47              		.loc 1 27 0
  48              		.cfi_startproc
  49              		@ args = 0, pretend = 0, frame = 0
  50              		@ frame_needed = 0, uses_anonymous_args = 0
  51 0000 08B5     		push	{r3, lr}
  52              		.cfi_def_cfa_offset 8
  53              		.cfi_offset 3, -8
  54              		.cfi_offset 14, -4
  55              		.loc 1 28 0
  56 0002 FFF7FEFF 		bl	_ZN2OS11CurrentTaskEv
  57              	.LVL1:
  58 0006 FFF7FEFF 		bl	_ZN2OS4Task4_EndEv
  59              	.LVL2:
  60              		.loc 1 29 0
  61 000a FFF7FEFF 		bl	_ZN2OS9__endTaskEv
  62              	.LVL3:
  63 000e 08BD     		pop	{r3, pc}
  64              		.cfi_endproc
  65              	.LFE56:
  66              		.size	_ZN2OSL12_TaskCleanUpEv, .-_ZN2OSL12_TaskCleanUpEv
  67              		.section	.text._ZN2OS4TaskC2EPNS0_10StackEntryEi,"ax",%progbits
  68              		.align	2
  69              		.global	_ZN2OS4TaskC2EPNS0_10StackEntryEi
  70              		.thumb
  71              		.thumb_func
  72              		.type	_ZN2OS4TaskC2EPNS0_10StackEntryEi, %function
  73              	_ZN2OS4TaskC2EPNS0_10StackEntryEi:
  74              	.LFB59:
  75              		.loc 1 36 0
  76              		.cfi_startproc
  77              		@ args = 0, pretend = 0, frame = 0
  78              		@ frame_needed = 0, uses_anonymous_args = 0
  79              		@ link register save eliminated.
  80              	.LVL4:
  81 0000 10B4     		push	{r4}
  82              		.cfi_def_cfa_offset 4
  83              		.cfi_offset 4, -4
  84              	.LBB2:
  85              		.loc 1 37 0
  86 0002 0024     		movs	r4, #0
  87 0004 0460     		str	r4, [r0]
  88              		.loc 1 38 0
  89 0006 4160     		str	r1, [r0, #4]
  90              		.loc 1 39 0
  91 0008 5201     		lsls	r2, r2, #5
  92              	.LVL5:
  93 000a 8260     		str	r2, [r0, #8]
  94              		.loc 1 40 0
  95 000c 0476     		strb	r4, [r0, #24]
  96              	.LBE2:
  97              		.loc 1 41 0
  98 000e 5DF8044B 		ldr	r4, [sp], #4
  99              		.cfi_restore 4
 100              		.cfi_def_cfa_offset 0
 101 0012 7047     		bx	lr
 102              		.cfi_endproc
 103              	.LFE59:
 104              		.size	_ZN2OS4TaskC2EPNS0_10StackEntryEi, .-_ZN2OS4TaskC2EPNS0_10StackEntryEi
 105              		.global	_ZN2OS4TaskC1EPNS0_10StackEntryEi
 106              		.thumb_set _ZN2OS4TaskC1EPNS0_10StackEntryEi,_ZN2OS4TaskC2EPNS0_10StackEntryEi
 107              		.section	.text._ZN2OS4Task5StartEPFvPvES1_,"ax",%progbits
 108              		.align	2
 109              		.global	_ZN2OS4Task5StartEPFvPvES1_
 110              		.thumb
 111              		.thumb_func
 112              		.type	_ZN2OS4Task5StartEPFvPvES1_, %function
 113              	_ZN2OS4Task5StartEPFvPvES1_:
 114              	.LFB61:
 115              		.loc 1 43 0
 116              		.cfi_startproc
 117              		@ args = 0, pretend = 0, frame = 0
 118              		@ frame_needed = 0, uses_anonymous_args = 0
 119              	.LVL6:
 120 0000 10B5     		push	{r4, lr}
 121              		.cfi_def_cfa_offset 8
 122              		.cfi_offset 4, -8
 123              		.cfi_offset 14, -4
 124 0002 0446     		mov	r4, r0
 125              	.LBB3:
 126              		.loc 1 44 0
 127 0004 E060     		str	r0, [r4, #12]
 128              		.loc 1 45 0
 129 0006 4068     		ldr	r0, [r0, #4]
 130              	.LVL7:
 131 0008 A368     		ldr	r3, [r4, #8]
 132 000a 1844     		add	r0, r0, r3
 133 000c A0F14003 		sub	r3, r0, #64
 134 0010 2361     		str	r3, [r4, #16]
 135              	.LVL8:
 136              		.loc 1 47 0
 137 0012 40F8202C 		str	r2, [r0, #-32]
 138              		.loc 1 48 0
 139 0016 0022     		movs	r2, #0
 140              	.LVL9:
 141 0018 40F81C2C 		str	r2, [r0, #-28]
 142              		.loc 1 49 0
 143 001c 40F8182C 		str	r2, [r0, #-24]
 144              		.loc 1 50 0
 145 0020 40F8142C 		str	r2, [r0, #-20]
 146              		.loc 1 51 0
 147 0024 40F8102C 		str	r2, [r0, #-16]
 148              		.loc 1 52 0
 149 0028 40F8081C 		str	r1, [r0, #-8]
 150              		.loc 1 53 0
 151 002c 064A     		ldr	r2, .L8
 152 002e 40F80C2C 		str	r2, [r0, #-12]
 153              		.loc 1 54 0
 154 0032 4FF00452 		mov	r2, #553648128
 155 0036 40F8042C 		str	r2, [r0, #-4]
 156              		.loc 1 55 0
 157 003a 04F10C00 		add	r0, r4, #12
 158              	.LVL10:
 159 003e FFF7FEFF 		bl	_ZN2OS9__addTaskEPNS_10_task_linkE
 160              	.LVL11:
 161              		.loc 1 56 0
 162 0042 0123     		movs	r3, #1
 163 0044 2376     		strb	r3, [r4, #24]
 164 0046 10BD     		pop	{r4, pc}
 165              	.LVL12:
 166              	.L9:
 167              		.align	2
 168              	.L8:
 169 0048 00000000 		.word	_ZN2OSL12_TaskCleanUpEv
 170              	.LBE3:
 171              		.cfi_endproc
 172              	.LFE61:
 173              		.size	_ZN2OS4Task5StartEPFvPvES1_, .-_ZN2OS4Task5StartEPFvPvES1_
 174              		.section	.text._ZN2OS4Task6SwitchEv,"ax",%progbits
 175              		.align	2
 176              		.global	_ZN2OS4Task6SwitchEv
 177              		.thumb
 178              		.thumb_func
 179              		.type	_ZN2OS4Task6SwitchEv, %function
 180              	_ZN2OS4Task6SwitchEv:
 181              	.LFB62:
 182              		.loc 1 59 0
 183              		.cfi_startproc
 184              		@ args = 0, pretend = 0, frame = 0
 185              		@ frame_needed = 0, uses_anonymous_args = 0
 186 0000 08B5     		push	{r3, lr}
 187              		.cfi_def_cfa_offset 8
 188              		.cfi_offset 3, -8
 189              		.cfi_offset 14, -4
 190              		.loc 1 60 0
 191 0002 FFF7FEFF 		bl	_ZN2OS10SwitchTaskEv
 192              	.LVL13:
 193 0006 08BD     		pop	{r3, pc}
 194              		.cfi_endproc
 195              	.LFE62:
 196              		.size	_ZN2OS4Task6SwitchEv, .-_ZN2OS4Task6SwitchEv
 197              		.text
 198              	.Letext0:
 199              		.file 2 "c:\\program files (x86)\\gnu tools arm embedded\\4.9 2015q1\\lib\\gcc\\arm-none-eabi\\4.9
 200              		.file 3 "../system/include/cmsis/stm32f10x.h"
 201              		.file 4 "../include/types.h"
 202              		.file 5 "../include/os/task.h"
 203              		.file 6 "../include/os.h"
 204              		.file 7 "../system/include/cmsis/core_cm3.h"