   1              		.syntax unified
   2              		.cpu cortex-m3
   3              		.fpu softvfp
   4              		.eabi_attribute 20, 1
   5              		.eabi_attribute 21, 1
   6              		.eabi_attribute 23, 3
   7              		.eabi_attribute 24, 1
   8              		.eabi_attribute 25, 1
   9              		.eabi_attribute 26, 1
  10              		.eabi_attribute 30, 1
  11              		.eabi_attribute 34, 1
  12              		.eabi_attribute 18, 4
  13              		.thumb
  14              		.file	"uart.cpp"
  15              		.text
  16              	.Ltext0:
  17              		.cfi_sections	.debug_frame
  18              		.section	.text._ZN4UartC2Em,"ax",%progbits
  19              		.align	2
  20              		.global	_ZN4UartC2Em
  21              		.thumb
  22              		.thumb_func
  23              		.type	_ZN4UartC2Em, %function
  24              	_ZN4UartC2Em:
  25              	.LFB61:
  26              		.file 1 "../src/modules/uart.cpp"
  27              		.loc 1 19 0
  28              		.cfi_startproc
  29              		@ args = 0, pretend = 0, frame = 0
  30              		@ frame_needed = 0, uses_anonymous_args = 0
  31              	.LVL0:
  32 0000 38B5     		push	{r3, r4, r5, lr}
  33              		.cfi_def_cfa_offset 16
  34              		.cfi_offset 3, -16
  35              		.cfi_offset 4, -12
  36              		.cfi_offset 5, -8
  37              		.cfi_offset 14, -4
  38 0002 0446     		mov	r4, r0
  39 0004 0D46     		mov	r5, r1
  40              	.LBB47:
  41              		.loc 1 19 0
  42 0006 00F21940 		addw	r0, r0, #1049
  43              	.LVL1:
  44 000a FFF7FEFF 		bl	_ZN2OS5MutexC1Ev
  45              	.LVL2:
  46 000e 04F21A40 		addw	r0, r4, #1050
  47 0012 FFF7FEFF 		bl	_ZN2OS5MutexC1Ev
  48              	.LVL3:
  49              		.loc 1 20 0
  50 0016 C4F81454 		str	r5, [r4, #1044]
  51              		.loc 1 21 0
  52 001a 144B     		ldr	r3, .L10
  53 001c 9D42     		cmp	r5, r3
  54 001e 1CD0     		beq	.L3
  55 0020 08D8     		bhi	.L4
  56 0022 A3F50063 		sub	r3, r3, #2048
  57 0026 9D42     		cmp	r5, r3
  58 0028 0FD0     		beq	.L5
  59 002a 03F58063 		add	r3, r3, #1024
  60 002e 9D42     		cmp	r5, r3
  61 0030 0FD0     		beq	.L6
  62 0032 19E0     		b	.L2
  63              	.L4:
  64 0034 0E4B     		ldr	r3, .L10+4
  65 0036 9D42     		cmp	r5, r3
  66 0038 13D0     		beq	.L7
  67 003a 03F56843 		add	r3, r3, #59392
  68 003e 9D42     		cmp	r5, r3
  69 0040 12D1     		bne	.L2
  70              		.loc 1 23 0
  71 0042 0023     		movs	r3, #0
  72 0044 84F81834 		strb	r3, [r4, #1048]
  73              		.loc 1 24 0
  74 0048 0EE0     		b	.L2
  75              	.L5:
  76              		.loc 1 26 0
  77 004a 0123     		movs	r3, #1
  78 004c 84F81834 		strb	r3, [r4, #1048]
  79              		.loc 1 27 0
  80 0050 0AE0     		b	.L2
  81              	.L6:
  82              		.loc 1 29 0
  83 0052 0223     		movs	r3, #2
  84 0054 84F81834 		strb	r3, [r4, #1048]
  85              		.loc 1 30 0
  86 0058 06E0     		b	.L2
  87              	.L3:
  88              		.loc 1 32 0
  89 005a 0323     		movs	r3, #3
  90 005c 84F81834 		strb	r3, [r4, #1048]
  91              		.loc 1 33 0
  92 0060 02E0     		b	.L2
  93              	.L7:
  94              		.loc 1 35 0
  95 0062 0423     		movs	r3, #4
  96 0064 84F81834 		strb	r3, [r4, #1048]
  97              	.L2:
  98              	.LBE47:
  99              		.loc 1 41 0
 100 0068 2046     		mov	r0, r4
 101 006a 38BD     		pop	{r3, r4, r5, pc}
 102              	.LVL4:
 103              	.L11:
 104              		.align	2
 105              	.L10:
 106 006c 004C0040 		.word	1073761280
 107 0070 00500040 		.word	1073762304
 108              		.cfi_endproc
 109              	.LFE61:
 110              		.size	_ZN4UartC2Em, .-_ZN4UartC2Em
 111              		.global	_ZN4UartC1Em
 112              		.thumb_set _ZN4UartC1Em,_ZN4UartC2Em
 113              		.section	.text._Z41__static_initialization_and_destruction_0ii,"ax",%progbits
 114              		.align	2
 115              		.thumb
 116              		.thumb_func
 117              		.type	_Z41__static_initialization_and_destruction_0ii, %function
 118              	_Z41__static_initialization_and_destruction_0ii:
 119              	.LFB83:
 120              		.loc 1 761 0
 121              		.cfi_startproc
 122              		@ args = 0, pretend = 0, frame = 0
 123              		@ frame_needed = 0, uses_anonymous_args = 0
 124              	.LVL5:
 125 0000 0128     		cmp	r0, #1
 126 0002 0FD1     		bne	.L15
 127              		.loc 1 761 0 is_stmt 0 discriminator 1
 128 0004 4FF6FF73 		movw	r3, #65535
 129 0008 9942     		cmp	r1, r3
 130 000a 0BD1     		bne	.L15
 131              		.loc 1 761 0
 132 000c 10B5     		push	{r4, lr}
 133              		.cfi_def_cfa_offset 8
 134              		.cfi_offset 4, -8
 135              		.cfi_offset 14, -4
 136              		.loc 1 9 0 is_stmt 1
 137 000e 064C     		ldr	r4, .L16
 138 0010 2046     		mov	r0, r4
 139              	.LVL6:
 140 0012 0649     		ldr	r1, .L16+4
 141              	.LVL7:
 142 0014 FFF7FEFF 		bl	_ZN4UartC2Em
 143              	.LVL8:
 144 0018 04F21C40 		addw	r0, r4, #1052
 145 001c 0449     		ldr	r1, .L16+8
 146 001e FFF7FEFF 		bl	_ZN4UartC2Em
 147              	.LVL9:
 148 0022 10BD     		pop	{r4, pc}
 149              	.LVL10:
 150              	.L15:
 151              		.cfi_def_cfa_offset 0
 152              		.cfi_restore 4
 153              		.cfi_restore 14
 154 0024 7047     		bx	lr
 155              	.L17:
 156 0026 00BF     		.align	2
 157              	.L16:
 158 0028 00000000 		.word	.LANCHOR0
 159 002c 00380140 		.word	1073821696
 160 0030 00440040 		.word	1073759232
 161              		.cfi_endproc
 162              	.LFE83:
 163              		.size	_Z41__static_initialization_and_destruction_0ii, .-_Z41__static_initialization_and_destructi
 164              		.section	.text._ZN4Uart7SetBaudEi,"ax",%progbits
 165              		.align	2
 166              		.global	_ZN4Uart7SetBaudEi
 167              		.thumb
 168              		.thumb_func
 169              		.type	_ZN4Uart7SetBaudEi, %function
 170              	_ZN4Uart7SetBaudEi:
 171              	.LFB66:
 172              		.loc 1 243 0
 173              		.cfi_startproc
 174              		@ args = 0, pretend = 0, frame = 0
 175              		@ frame_needed = 0, uses_anonymous_args = 0
 176              		@ link register save eliminated.
 177              	.LVL11:
 178              		.loc 1 245 0
 179 0000 90F81834 		ldrb	r3, [r0, #1048]	@ zero_extendqisi2
 180 0004 13B1     		cbz	r3, .L20
 181 0006 042B     		cmp	r3, #4
 182 0008 0DD8     		bhi	.L18
 183 000a 06E0     		b	.L22
 184              	.L20:
 185              		.loc 1 247 0
 186 000c D0F81424 		ldr	r2, [r0, #1044]
 187 0010 054B     		ldr	r3, .L23
 188 0012 93FBF1F1 		sdiv	r1, r3, r1
 189              	.LVL12:
 190 0016 9160     		str	r1, [r2, #8]
 191              		.loc 1 248 0
 192 0018 7047     		bx	lr
 193              	.LVL13:
 194              	.L22:
 195              		.loc 1 253 0
 196 001a D0F81424 		ldr	r2, [r0, #1044]
 197 001e 034B     		ldr	r3, .L23+4
 198 0020 93FBF1F1 		sdiv	r1, r3, r1
 199              	.LVL14:
 200 0024 9160     		str	r1, [r2, #8]
 201              	.L18:
 202 0026 7047     		bx	lr
 203              	.L24:
 204              		.align	2
 205              	.L23:
 206 0028 00A24A04 		.word	72000000
 207 002c 00512502 		.word	36000000
 208              		.cfi_endproc
 209              	.LFE66:
 210              		.size	_ZN4Uart7SetBaudEi, .-_ZN4Uart7SetBaudEi
 211              		.section	.text._ZN4Uart4InitEv,"ax",%progbits
 212              		.align	2
 213              		.global	_ZN4Uart4InitEv
 214              		.thumb
 215              		.thumb_func
 216              		.type	_ZN4Uart4InitEv, %function
 217              	_ZN4Uart4InitEv:
 218              	.LFB63:
 219              		.loc 1 43 0
 220              		.cfi_startproc
 221              		@ args = 0, pretend = 0, frame = 8
 222              		@ frame_needed = 0, uses_anonymous_args = 0
 223              	.LVL15:
 224 0000 F0B5     		push	{r4, r5, r6, r7, lr}
 225              		.cfi_def_cfa_offset 20
 226              		.cfi_offset 4, -20
 227              		.cfi_offset 5, -16
 228              		.cfi_offset 6, -12
 229              		.cfi_offset 7, -8
 230              		.cfi_offset 14, -4
 231 0002 83B0     		sub	sp, sp, #12
 232              		.cfi_def_cfa_offset 32
 233 0004 0446     		mov	r4, r0
 234              	.LBB48:
 235              		.loc 1 48 0
 236 0006 90F81834 		ldrb	r3, [r0, #1048]	@ zero_extendqisi2
 237 000a 012B     		cmp	r3, #1
 238 000c 41D0     		beq	.L27
 239 000e 13B1     		cbz	r3, .L28
 240 0010 022B     		cmp	r3, #2
 241 0012 79D0     		beq	.L29
 242 0014 AFE0     		b	.L26
 243              	.L28:
 244              		.loc 1 50 0
 245 0016 4FF48040 		mov	r0, #16384
 246              	.LVL16:
 247 001a 0121     		movs	r1, #1
 248 001c FFF7FEFF 		bl	RCC_APB2PeriphClockCmd
 249              	.LVL17:
 250              		.loc 1 51 0
 251 0020 0420     		movs	r0, #4
 252 0022 0121     		movs	r1, #1
 253 0024 FFF7FEFF 		bl	RCC_APB2PeriphClockCmd
 254              	.LVL18:
 255              		.loc 1 52 0
 256 0028 0120     		movs	r0, #1
 257 002a 0146     		mov	r1, r0
 258 002c FFF7FEFF 		bl	RCC_APB2PeriphClockCmd
 259              	.LVL19:
 260              		.loc 1 54 0
 261 0030 4FF40073 		mov	r3, #512
 262 0034 ADF80030 		strh	r3, [sp]	@ movhi
 263              		.loc 1 55 0
 264 0038 0226     		movs	r6, #2
 265 003a 8DF80260 		strb	r6, [sp, #2]
 266              		.loc 1 56 0
 267 003e 1823     		movs	r3, #24
 268 0040 8DF80330 		strb	r3, [sp, #3]
 269              		.loc 1 57 0
 270 0044 564D     		ldr	r5, .L31
 271 0046 2846     		mov	r0, r5
 272 0048 6946     		mov	r1, sp
 273 004a FFF7FEFF 		bl	GPIO_Init
 274              	.LVL20:
 275              		.loc 1 60 0
 276 004e 4FF48063 		mov	r3, #1024
 277 0052 ADF80030 		strh	r3, [sp]	@ movhi
 278              		.loc 1 61 0
 279 0056 8DF80260 		strb	r6, [sp, #2]
 280              		.loc 1 62 0
 281 005a 0423     		movs	r3, #4
 282 005c 8DF80330 		strb	r3, [sp, #3]
 283              		.loc 1 63 0
 284 0060 2846     		mov	r0, r5
 285 0062 6946     		mov	r1, sp
 286 0064 FFF7FEFF 		bl	GPIO_Init
 287              	.LVL21:
 288              		.loc 1 67 0
 289 0068 2523     		movs	r3, #37
 290 006a 8DF80430 		strb	r3, [sp, #4]
 291              		.loc 1 68 0
 292 006e 0123     		movs	r3, #1
 293 0070 8DF80730 		strb	r3, [sp, #7]
 294              		.loc 1 69 0
 295 0074 0323     		movs	r3, #3
 296 0076 8DF80530 		strb	r3, [sp, #5]
 297              		.loc 1 70 0
 298 007a 0023     		movs	r3, #0
 299 007c 8DF80630 		strb	r3, [sp, #6]
 300              		.loc 1 71 0
 301 0080 01A8     		add	r0, sp, #4
 302 0082 FFF7FEFF 		bl	NVIC_Init
 303              	.LVL22:
 304              		.loc 1 73 0
 305 0086 2046     		mov	r0, r4
 306 0088 4FF4E131 		mov	r1, #115200
 307 008c FFF7FEFF 		bl	_ZN4Uart7SetBaudEi
 308              	.LVL23:
 309              		.loc 1 74 0
 310 0090 71E0     		b	.L26
 311              	.LVL24:
 312              	.L27:
 313              		.loc 1 76 0
 314 0092 4FF40030 		mov	r0, #131072
 315              	.LVL25:
 316 0096 0121     		movs	r1, #1
 317 0098 FFF7FEFF 		bl	RCC_APB1PeriphClockCmd
 318              	.LVL26:
 319              		.loc 1 77 0
 320 009c 0420     		movs	r0, #4
 321 009e 0121     		movs	r1, #1
 322 00a0 FFF7FEFF 		bl	RCC_APB2PeriphClockCmd
 323              	.LVL27:
 324              		.loc 1 78 0
 325 00a4 0120     		movs	r0, #1
 326 00a6 0146     		mov	r1, r0
 327 00a8 FFF7FEFF 		bl	RCC_APB2PeriphClockCmd
 328              	.LVL28:
 329              		.loc 1 80 0
 330 00ac 0426     		movs	r6, #4
 331 00ae ADF80060 		strh	r6, [sp]	@ movhi
 332              		.loc 1 81 0
 333 00b2 0227     		movs	r7, #2
 334 00b4 8DF80270 		strb	r7, [sp, #2]
 335              		.loc 1 82 0
 336 00b8 1823     		movs	r3, #24
 337 00ba 8DF80330 		strb	r3, [sp, #3]
 338              		.loc 1 83 0
 339 00be 384D     		ldr	r5, .L31
 340 00c0 2846     		mov	r0, r5
 341 00c2 6946     		mov	r1, sp
 342 00c4 FFF7FEFF 		bl	GPIO_Init
 343              	.LVL29:
 344              		.loc 1 86 0
 345 00c8 0823     		movs	r3, #8
 346 00ca ADF80030 		strh	r3, [sp]	@ movhi
 347              		.loc 1 87 0
 348 00ce 8DF80270 		strb	r7, [sp, #2]
 349              		.loc 1 88 0
 350 00d2 8DF80360 		strb	r6, [sp, #3]
 351              		.loc 1 89 0
 352 00d6 2846     		mov	r0, r5
 353 00d8 6946     		mov	r1, sp
 354 00da FFF7FEFF 		bl	GPIO_Init
 355              	.LVL30:
 356              		.loc 1 93 0
 357 00de 2623     		movs	r3, #38
 358 00e0 8DF80430 		strb	r3, [sp, #4]
 359              		.loc 1 94 0
 360 00e4 0123     		movs	r3, #1
 361 00e6 8DF80730 		strb	r3, [sp, #7]
 362              		.loc 1 95 0
 363 00ea 0023     		movs	r3, #0
 364 00ec 8DF80530 		strb	r3, [sp, #5]
 365              		.loc 1 96 0
 366 00f0 8DF80630 		strb	r3, [sp, #6]
 367              		.loc 1 97 0
 368 00f4 0DEB0600 		add	r0, sp, r6
 369 00f8 FFF7FEFF 		bl	NVIC_Init
 370              	.LVL31:
 371              		.loc 1 99 0
 372 00fc 2046     		mov	r0, r4
 373 00fe 4FF4E131 		mov	r1, #115200
 374 0102 FFF7FEFF 		bl	_ZN4Uart7SetBaudEi
 375              	.LVL32:
 376              		.loc 1 100 0
 377 0106 36E0     		b	.L26
 378              	.LVL33:
 379              	.L29:
 380              		.loc 1 102 0
 381 0108 4FF48020 		mov	r0, #262144
 382              	.LVL34:
 383 010c 0121     		movs	r1, #1
 384 010e FFF7FEFF 		bl	RCC_APB1PeriphClockCmd
 385              	.LVL35:
 386              		.loc 1 103 0
 387 0112 0820     		movs	r0, #8
 388 0114 0121     		movs	r1, #1
 389 0116 FFF7FEFF 		bl	RCC_APB2PeriphClockCmd
 390              	.LVL36:
 391              		.loc 1 104 0
 392 011a 0120     		movs	r0, #1
 393 011c 0146     		mov	r1, r0
 394 011e FFF7FEFF 		bl	RCC_APB2PeriphClockCmd
 395              	.LVL37:
 396              		.loc 1 106 0
 397 0122 4FF48063 		mov	r3, #1024
 398 0126 ADF80030 		strh	r3, [sp]	@ movhi
 399              		.loc 1 107 0
 400 012a 0226     		movs	r6, #2
 401 012c 8DF80260 		strb	r6, [sp, #2]
 402              		.loc 1 108 0
 403 0130 1823     		movs	r3, #24
 404 0132 8DF80330 		strb	r3, [sp, #3]
 405              		.loc 1 109 0
 406 0136 1B4D     		ldr	r5, .L31+4
 407 0138 2846     		mov	r0, r5
 408 013a 6946     		mov	r1, sp
 409 013c FFF7FEFF 		bl	GPIO_Init
 410              	.LVL38:
 411              		.loc 1 112 0
 412 0140 4FF40063 		mov	r3, #2048
 413 0144 ADF80030 		strh	r3, [sp]	@ movhi
 414              		.loc 1 113 0
 415 0148 8DF80260 		strb	r6, [sp, #2]
 416              		.loc 1 114 0
 417 014c 0423     		movs	r3, #4
 418 014e 8DF80330 		strb	r3, [sp, #3]
 419              		.loc 1 115 0
 420 0152 2846     		mov	r0, r5
 421 0154 6946     		mov	r1, sp
 422 0156 FFF7FEFF 		bl	GPIO_Init
 423              	.LVL39:
 424              		.loc 1 118 0
 425 015a 2723     		movs	r3, #39
 426 015c 8DF80430 		strb	r3, [sp, #4]
 427              		.loc 1 119 0
 428 0160 0123     		movs	r3, #1
 429 0162 8DF80730 		strb	r3, [sp, #7]
 430              		.loc 1 120 0
 431 0166 0023     		movs	r3, #0
 432 0168 8DF80530 		strb	r3, [sp, #5]
 433              		.loc 1 121 0
 434 016c 8DF80630 		strb	r3, [sp, #6]
 435              		.loc 1 122 0
 436 0170 01A8     		add	r0, sp, #4
 437 0172 FFF7FEFF 		bl	NVIC_Init
 438              	.LVL40:
 439              	.L26:
 440              		.loc 1 140 0
 441 0176 D4F81424 		ldr	r2, [r4, #1044]
 442 017a 0023     		movs	r3, #0
 443 017c 1361     		str	r3, [r2, #16]
 444              		.loc 1 143 0
 445 017e D4F81424 		ldr	r2, [r4, #1044]
 446              		.loc 1 146 0
 447 0182 42F22C01 		movw	r1, #8236
 448 0186 D160     		str	r1, [r2, #12]
 449              		.loc 1 163 0
 450 0188 C4F80034 		str	r3, [r4, #1024]
 451              		.loc 1 164 0
 452 018c C4F80834 		str	r3, [r4, #1032]
 453              		.loc 1 165 0
 454 0190 C4F80434 		str	r3, [r4, #1028]
 455              		.loc 1 166 0
 456 0194 C4F80C34 		str	r3, [r4, #1036]
 457              		.loc 1 167 0
 458 0198 84F81034 		strb	r3, [r4, #1040]
 459              	.LBE48:
 460              		.loc 1 170 0
 461 019c 03B0     		add	sp, sp, #12
 462              		.cfi_def_cfa_offset 20
 463              		@ sp needed
 464 019e F0BD     		pop	{r4, r5, r6, r7, pc}
 465              	.LVL41:
 466              	.L32:
 467              		.align	2
 468              	.L31:
 469 01a0 00080140 		.word	1073809408
 470 01a4 000C0140 		.word	1073810432
 471              		.cfi_endproc
 472              	.LFE63:
 473              		.size	_ZN4Uart4InitEv, .-_ZN4Uart4InitEv
 474              		.section	.text._ZN4Uart7GetUartENS_15UART_CONNECTIONE,"ax",%progbits
 475              		.align	2
 476              		.global	_ZN4Uart7GetUartENS_15UART_CONNECTIONE
 477              		.thumb
 478              		.thumb_func
 479              		.type	_ZN4Uart7GetUartENS_15UART_CONNECTIONE, %function
 480              	_ZN4Uart7GetUartENS_15UART_CONNECTIONE:
 481              	.LFB64:
 482              		.loc 1 181 0
 483              		.cfi_startproc
 484              		@ args = 0, pretend = 0, frame = 0
 485              		@ frame_needed = 0, uses_anonymous_args = 0
 486              	.LVL42:
 487 0000 10B5     		push	{r4, lr}
 488              		.cfi_def_cfa_offset 8
 489              		.cfi_offset 4, -8
 490              		.cfi_offset 14, -4
 491              	.LBB49:
 492              		.loc 1 184 0
 493 0002 10B1     		cbz	r0, .L35
 494 0004 0128     		cmp	r0, #1
 495 0006 06D0     		beq	.L36
 496 0008 0BE0     		b	.L38
 497              	.L35:
 498              		.loc 1 186 0
 499 000a 40F21C44 		movw	r4, #1052
 500 000e 084A     		ldr	r2, .L40
 501 0010 04FB0024 		mla	r4, r4, r0, r2
 502              	.LVL43:
 503              		.loc 1 187 0
 504 0014 06E0     		b	.L34
 505              	.LVL44:
 506              	.L36:
 507              		.loc 1 189 0
 508 0016 40F21C44 		movw	r4, #1052
 509 001a 054A     		ldr	r2, .L40
 510 001c 04FB0024 		mla	r4, r4, r0, r2
 511              	.LVL45:
 512              		.loc 1 190 0
 513 0020 00E0     		b	.L34
 514              	.LVL46:
 515              	.L38:
 516              		.loc 1 192 0
 517 0022 0024     		movs	r4, #0
 518              	.L34:
 519              	.LVL47:
 520              		.loc 1 195 0
 521 0024 2046     		mov	r0, r4
 522              	.LVL48:
 523 0026 FFF7FEFF 		bl	_ZN4Uart4InitEv
 524              	.LVL49:
 525              	.LBE49:
 526              		.loc 1 197 0
 527 002a 2046     		mov	r0, r4
 528 002c 10BD     		pop	{r4, pc}
 529              	.LVL50:
 530              	.L41:
 531 002e 00BF     		.align	2
 532              	.L40:
 533 0030 00000000 		.word	.LANCHOR0
 534              		.cfi_endproc
 535              	.LFE64:
 536              		.size	_ZN4Uart7GetUartENS_15UART_CONNECTIONE, .-_ZN4Uart7GetUartENS_15UART_CONNECTIONE
 537              		.section	.text._ZN4Uart14GetUartIsrSafeENS_15UART_CONNECTIONE,"ax",%progbits
 538              		.align	2
 539              		.global	_ZN4Uart14GetUartIsrSafeENS_15UART_CONNECTIONE
 540              		.thumb
 541              		.thumb_func
 542              		.type	_ZN4Uart14GetUartIsrSafeENS_15UART_CONNECTIONE, %function
 543              	_ZN4Uart14GetUartIsrSafeENS_15UART_CONNECTIONE:
 544              	.LFB65:
 545              		.loc 1 199 0
 546              		.cfi_startproc
 547              		@ args = 0, pretend = 0, frame = 8
 548              		@ frame_needed = 0, uses_anonymous_args = 0
 549              	.LVL51:
 550              	.LBB50:
 551              		.loc 1 203 0
 552 0000 0128     		cmp	r0, #1
 553 0002 3ED1     		bne	.L44
 554              	.LBE50:
 555              		.loc 1 199 0
 556 0004 F0B5     		push	{r4, r5, r6, r7, lr}
 557              		.cfi_def_cfa_offset 20
 558              		.cfi_offset 4, -20
 559              		.cfi_offset 5, -16
 560              		.cfi_offset 6, -12
 561              		.cfi_offset 7, -8
 562              		.cfi_offset 14, -4
 563 0006 83B0     		sub	sp, sp, #12
 564              		.cfi_def_cfa_offset 32
 565              	.LBB51:
 566              		.loc 1 206 0
 567 0008 40F21C44 		movw	r4, #1052
 568 000c 1F4B     		ldr	r3, .L47
 569 000e 04FB0034 		mla	r4, r4, r0, r3
 570              	.LVL52:
 571              		.loc 1 209 0
 572 0012 4FF40030 		mov	r0, #131072
 573              	.LVL53:
 574 0016 0121     		movs	r1, #1
 575 0018 FFF7FEFF 		bl	RCC_APB1PeriphClockCmd
 576              	.LVL54:
 577              		.loc 1 210 0
 578 001c 0420     		movs	r0, #4
 579 001e 0121     		movs	r1, #1
 580 0020 FFF7FEFF 		bl	RCC_APB2PeriphClockCmd
 581              	.LVL55:
 582              		.loc 1 211 0
 583 0024 0120     		movs	r0, #1
 584 0026 0146     		mov	r1, r0
 585 0028 FFF7FEFF 		bl	RCC_APB2PeriphClockCmd
 586              	.LVL56:
 587              		.loc 1 213 0
 588 002c 0426     		movs	r6, #4
 589 002e ADF80460 		strh	r6, [sp, #4]	@ movhi
 590              		.loc 1 214 0
 591 0032 0227     		movs	r7, #2
 592 0034 8DF80670 		strb	r7, [sp, #6]
 593              		.loc 1 215 0
 594 0038 1823     		movs	r3, #24
 595 003a 8DF80730 		strb	r3, [sp, #7]
 596              		.loc 1 216 0
 597 003e 144D     		ldr	r5, .L47+4
 598 0040 2846     		mov	r0, r5
 599 0042 0DEB0601 		add	r1, sp, r6
 600 0046 FFF7FEFF 		bl	GPIO_Init
 601              	.LVL57:
 602              		.loc 1 219 0
 603 004a 0823     		movs	r3, #8
 604 004c ADF80430 		strh	r3, [sp, #4]	@ movhi
 605              		.loc 1 220 0
 606 0050 8DF80670 		strb	r7, [sp, #6]
 607              		.loc 1 221 0
 608 0054 8DF80760 		strb	r6, [sp, #7]
 609              		.loc 1 222 0
 610 0058 2846     		mov	r0, r5
 611 005a 0DEB0601 		add	r1, sp, r6
 612 005e FFF7FEFF 		bl	GPIO_Init
 613              	.LVL58:
 614              		.loc 1 227 0
 615 0062 2046     		mov	r0, r4
 616 0064 4FF4E131 		mov	r1, #115200
 617 0068 FFF7FEFF 		bl	_ZN4Uart7SetBaudEi
 618              	.LVL59:
 619              		.loc 1 230 0
 620 006c D4F81424 		ldr	r2, [r4, #1044]
 621 0070 0021     		movs	r1, #0
 622 0072 1161     		str	r1, [r2, #16]
 623              		.loc 1 233 0
 624 0074 D4F81434 		ldr	r3, [r4, #1044]
 625              		.loc 1 236 0
 626 0078 42F20C02 		movw	r2, #8204
 627 007c DA60     		str	r2, [r3, #12]
 628              		.loc 1 238 0
 629 007e 2046     		mov	r0, r4
 630 0080 01E0     		b	.L43
 631              	.LVL60:
 632              	.L44:
 633              		.cfi_def_cfa_offset 0
 634              		.cfi_restore 4
 635              		.cfi_restore 5
 636              		.cfi_restore 6
 637              		.cfi_restore 7
 638              		.cfi_restore 14
 639              		.loc 1 204 0
 640 0082 0020     		movs	r0, #0
 641              	.LVL61:
 642 0084 7047     		bx	lr
 643              	.LVL62:
 644              	.L43:
 645              		.cfi_def_cfa_offset 32
 646              		.cfi_offset 4, -20
 647              		.cfi_offset 5, -16
 648              		.cfi_offset 6, -12
 649              		.cfi_offset 7, -8
 650              		.cfi_offset 14, -4
 651              	.LBE51:
 652              		.loc 1 240 0
 653 0086 03B0     		add	sp, sp, #12
 654              		.cfi_def_cfa_offset 20
 655              		@ sp needed
 656 0088 F0BD     		pop	{r4, r5, r6, r7, pc}
 657              	.L48:
 658 008a 00BF     		.align	2
 659              	.L47:
 660 008c 00000000 		.word	.LANCHOR0
 661 0090 00080140 		.word	1073809408
 662              		.cfi_endproc
 663              	.LFE65:
 664              		.size	_ZN4Uart14GetUartIsrSafeENS_15UART_CONNECTIONE, .-_ZN4Uart14GetUartIsrSafeENS_15UART_CONNECT
 665              		.section	.text._ZN4Uart10WriteBasicEh,"ax",%progbits
 666              		.align	2
 667              		.global	_ZN4Uart10WriteBasicEh
 668              		.thumb
 669              		.thumb_func
 670              		.type	_ZN4Uart10WriteBasicEh, %function
 671              	_ZN4Uart10WriteBasicEh:
 672              	.LFB67:
 673              		.loc 1 259 0
 674              		.cfi_startproc
 675              		@ args = 0, pretend = 0, frame = 0
 676              		@ frame_needed = 0, uses_anonymous_args = 0
 677              		@ link register save eliminated.
 678              	.LVL63:
 679              	.L50:
 680              		.loc 1 261 0 discriminator 1
 681 0000 D0F81434 		ldr	r3, [r0, #1044]
 682 0004 1A68     		ldr	r2, [r3]
 683 0006 12F0800F 		tst	r2, #128
 684 000a F9D0     		beq	.L50
 685              		.loc 1 262 0
 686 000c 5960     		str	r1, [r3, #4]
 687 000e 7047     		bx	lr
 688              		.cfi_endproc
 689              	.LFE67:
 690              		.size	_ZN4Uart10WriteBasicEh, .-_ZN4Uart10WriteBasicEh
 691              		.section	.text._ZN4Uart12WriteIsrSafeEPvi,"ax",%progbits
 692              		.align	2
 693              		.global	_ZN4Uart12WriteIsrSafeEPvi
 694              		.thumb
 695              		.thumb_func
 696              		.type	_ZN4Uart12WriteIsrSafeEPvi, %function
 697              	_ZN4Uart12WriteIsrSafeEPvi:
 698              	.LFB68:
 699              		.loc 1 265 0
 700              		.cfi_startproc
 701              		@ args = 0, pretend = 0, frame = 0
 702              		@ frame_needed = 0, uses_anonymous_args = 0
 703              	.LVL64:
 704 0000 F8B5     		push	{r3, r4, r5, r6, r7, lr}
 705              		.cfi_def_cfa_offset 24
 706              		.cfi_offset 3, -24
 707              		.cfi_offset 4, -20
 708              		.cfi_offset 5, -16
 709              		.cfi_offset 6, -12
 710              		.cfi_offset 7, -8
 711              		.cfi_offset 14, -4
 712 0002 0746     		mov	r7, r0
 713 0004 0E46     		mov	r6, r1
 714 0006 1546     		mov	r5, r2
 715              	.LVL65:
 716              	.LBB52:
 717              	.LBB53:
 718              		.loc 1 268 0
 719 0008 0024     		movs	r4, #0
 720 000a 04E0     		b	.L52
 721              	.LVL66:
 722              	.L53:
 723              		.loc 1 271 0 discriminator 3
 724 000c 3846     		mov	r0, r7
 725 000e 315D     		ldrb	r1, [r6, r4]	@ zero_extendqisi2
 726 0010 FFF7FEFF 		bl	_ZN4Uart10WriteBasicEh
 727              	.LVL67:
 728              		.loc 1 268 0 discriminator 3
 729 0014 0134     		adds	r4, r4, #1
 730              	.LVL68:
 731              	.L52:
 732              		.loc 1 268 0 is_stmt 0 discriminator 1
 733 0016 AC42     		cmp	r4, r5
 734 0018 F8DB     		blt	.L53
 735              	.LBE53:
 736              	.LBE52:
 737              		.loc 1 273 0 is_stmt 1
 738 001a F8BD     		pop	{r3, r4, r5, r6, r7, pc}
 739              		.cfi_endproc
 740              	.LFE68:
 741              		.size	_ZN4Uart12WriteIsrSafeEPvi, .-_ZN4Uart12WriteIsrSafeEPvi
 742              		.section	.text._ZN4Uart8WriteHexEmib,"ax",%progbits
 743              		.align	2
 744              		.global	_ZN4Uart8WriteHexEmib
 745              		.thumb
 746              		.thumb_func
 747              		.type	_ZN4Uart8WriteHexEmib, %function
 748              	_ZN4Uart8WriteHexEmib:
 749              	.LFB69:
 750              		.loc 1 275 0
 751              		.cfi_startproc
 752              		@ args = 0, pretend = 0, frame = 0
 753              		@ frame_needed = 0, uses_anonymous_args = 0
 754              	.LVL69:
 755 0000 70B5     		push	{r4, r5, r6, lr}
 756              		.cfi_def_cfa_offset 16
 757              		.cfi_offset 4, -16
 758              		.cfi_offset 5, -12
 759              		.cfi_offset 6, -8
 760              		.cfi_offset 14, -4
 761 0002 0546     		mov	r5, r0
 762 0004 0E46     		mov	r6, r1
 763 0006 1446     		mov	r4, r2
 764              	.LBB54:
 765              		.loc 1 276 0
 766 0008 C3B1     		cbz	r3, .L57
 767              		.loc 1 277 0
 768 000a 3021     		movs	r1, #48
 769              	.LVL70:
 770 000c FFF7FEFF 		bl	_ZN4Uart10WriteBasicEh
 771              	.LVL71:
 772              		.loc 1 278 0
 773 0010 2846     		mov	r0, r5
 774 0012 7821     		movs	r1, #120
 775 0014 FFF7FEFF 		bl	_ZN4Uart10WriteBasicEh
 776              	.LVL72:
 777              	.LBB55:
 778              		.loc 1 280 0
 779 0018 10E0     		b	.L57
 780              	.LVL73:
 781              	.L60:
 782              	.LBB56:
 783              		.loc 1 281 0
 784 001a 013C     		subs	r4, r4, #1
 785              	.LVL74:
 786 001c A300     		lsls	r3, r4, #2
 787 001e 26FA03F1 		lsr	r1, r6, r3
 788 0022 01F00F01 		and	r1, r1, #15
 789              	.LVL75:
 790              		.loc 1 282 0
 791 0026 0929     		cmp	r1, #9
 792 0028 04D8     		bhi	.L58
 793              		.loc 1 283 0
 794 002a 2846     		mov	r0, r5
 795 002c 3031     		adds	r1, r1, #48
 796              	.LVL76:
 797 002e FFF7FEFF 		bl	_ZN4Uart10WriteBasicEh
 798              	.LVL77:
 799 0032 03E0     		b	.L57
 800              	.LVL78:
 801              	.L58:
 802              		.loc 1 285 0
 803 0034 2846     		mov	r0, r5
 804 0036 3731     		adds	r1, r1, #55
 805              	.LVL79:
 806 0038 FFF7FEFF 		bl	_ZN4Uart10WriteBasicEh
 807              	.LVL80:
 808              	.L57:
 809              	.LBE56:
 810              		.loc 1 280 0 discriminator 1
 811 003c 002C     		cmp	r4, #0
 812 003e ECDC     		bgt	.L60
 813              	.LBE55:
 814              	.LBE54:
 815              		.loc 1 288 0
 816 0040 70BD     		pop	{r4, r5, r6, pc}
 817              		.cfi_endproc
 818              	.LFE69:
 819              		.size	_ZN4Uart8WriteHexEmib, .-_ZN4Uart8WriteHexEmib
 820 0042 00BF     		.section	.text._ZN4Uart10WriteBytesEPvi,"ax",%progbits
 821              		.align	2
 822              		.global	_ZN4Uart10WriteBytesEPvi
 823              		.thumb
 824              		.thumb_func
 825              		.type	_ZN4Uart10WriteBytesEPvi, %function
 826              	_ZN4Uart10WriteBytesEPvi:
 827              	.LFB70:
 828              		.loc 1 297 0
 829              		.cfi_startproc
 830              		@ args = 0, pretend = 0, frame = 0
 831              		@ frame_needed = 0, uses_anonymous_args = 0
 832              	.LVL81:
 833 0000 2DE9F047 		push	{r4, r5, r6, r7, r8, r9, r10, lr}
 834              		.cfi_def_cfa_offset 32
 835              		.cfi_offset 4, -32
 836              		.cfi_offset 5, -28
 837              		.cfi_offset 6, -24
 838              		.cfi_offset 7, -20
 839              		.cfi_offset 8, -16
 840              		.cfi_offset 9, -12
 841              		.cfi_offset 10, -8
 842              		.cfi_offset 14, -4
 843 0004 0446     		mov	r4, r0
 844 0006 8846     		mov	r8, r1
 845 0008 1746     		mov	r7, r2
 846              	.LBB57:
 847              		.loc 1 303 0
 848 000a 00F21949 		addw	r9, r0, #1049
 849 000e 4846     		mov	r0, r9
 850              	.LVL82:
 851 0010 FFF7FEFF 		bl	_ZN2OS5Mutex8PendLockEv
 852              	.LVL83:
 853              	.LBB58:
 854              		.loc 1 311 0
 855 0014 0026     		movs	r6, #0
 856 0016 1DE0     		b	.L63
 857              	.LVL84:
 858              	.L67:
 859              	.LBB59:
 860              		.loc 1 314 0
 861 0018 D4F800A4 		ldr	r10, [r4, #1024]
 862              	.LVL85:
 863              		.loc 1 317 0
 864 001c 40F2FF13 		movw	r3, #511
 865 0020 9A45     		cmp	r10, r3
 866 0022 02D0     		beq	.L68
 867              		.loc 1 317 0 is_stmt 0 discriminator 1
 868 0024 0AF10105 		add	r5, r10, #1
 869 0028 03E0     		b	.L65
 870              	.L68:
 871              		.loc 1 317 0
 872 002a 0025     		movs	r5, #0
 873              	.LVL86:
 874              		.loc 1 326 0 is_stmt 1
 875 002c 01E0     		b	.L65
 876              	.LVL87:
 877              	.L66:
 878              		.loc 1 326 0 is_stmt 0 discriminator 2
 879 002e FFF7FEFF 		bl	_ZN2OS4Task6SwitchEv
 880              	.LVL88:
 881              	.L65:
 882              		.loc 1 326 0 discriminator 1
 883 0032 D4F80834 		ldr	r3, [r4, #1032]
 884 0036 9D42     		cmp	r5, r3
 885 0038 F9D0     		beq	.L66
 886              		.loc 1 329 0 is_stmt 1 discriminator 2
 887 003a 18F80630 		ldrb	r3, [r8, r6]	@ zero_extendqisi2
 888 003e 04F80A30 		strb	r3, [r4, r10]
 889              		.loc 1 332 0 discriminator 2
 890 0042 C4F80054 		str	r5, [r4, #1024]
 891              		.loc 1 336 0 discriminator 2
 892 0046 D4F81424 		ldr	r2, [r4, #1044]
 893 004a D368     		ldr	r3, [r2, #12]
 894 004c 43F08003 		orr	r3, r3, #128
 895 0050 D360     		str	r3, [r2, #12]
 896              	.LBE59:
 897              		.loc 1 311 0 discriminator 2
 898 0052 0136     		adds	r6, r6, #1
 899              	.LVL89:
 900              	.L63:
 901              		.loc 1 311 0 is_stmt 0 discriminator 1
 902 0054 BE42     		cmp	r6, r7
 903 0056 DFDB     		blt	.L67
 904              	.LBE58:
 905              		.loc 1 344 0 is_stmt 1
 906 0058 4846     		mov	r0, r9
 907 005a FFF7FEFF 		bl	_ZN2OS5Mutex7ReleaseEv
 908              	.LVL90:
 909 005e BDE8F087 		pop	{r4, r5, r6, r7, r8, r9, r10, pc}
 910              	.LBE57:
 911              		.cfi_endproc
 912              	.LFE70:
 913              		.size	_ZN4Uart10WriteBytesEPvi, .-_ZN4Uart10WriteBytesEPvi
 914 0062 00BF     		.section	.text._ZN4Uart9WriteByteEh,"ax",%progbits
 915              		.align	2
 916              		.global	_ZN4Uart9WriteByteEh
 917              		.thumb
 918              		.thumb_func
 919              		.type	_ZN4Uart9WriteByteEh, %function
 920              	_ZN4Uart9WriteByteEh:
 921              	.LFB71:
 922              		.loc 1 358 0
 923              		.cfi_startproc
 924              		@ args = 0, pretend = 0, frame = 0
 925              		@ frame_needed = 0, uses_anonymous_args = 0
 926              	.LVL91:
 927 0000 2DE9F041 		push	{r4, r5, r6, r7, r8, lr}
 928              		.cfi_def_cfa_offset 24
 929              		.cfi_offset 4, -24
 930              		.cfi_offset 5, -20
 931              		.cfi_offset 6, -16
 932              		.cfi_offset 7, -12
 933              		.cfi_offset 8, -8
 934              		.cfi_offset 14, -4
 935 0004 0446     		mov	r4, r0
 936 0006 8846     		mov	r8, r1
 937              	.LBB60:
 938              		.loc 1 364 0
 939 0008 00F21947 		addw	r7, r0, #1049
 940 000c 3846     		mov	r0, r7
 941              	.LVL92:
 942 000e FFF7FEFF 		bl	_ZN2OS5Mutex8PendLockEv
 943              	.LVL93:
 944              		.loc 1 373 0
 945 0012 D4F80064 		ldr	r6, [r4, #1024]
 946              	.LVL94:
 947              		.loc 1 376 0
 948 0016 40F2FF13 		movw	r3, #511
 949 001a 9E42     		cmp	r6, r3
 950 001c 01D0     		beq	.L74
 951              		.loc 1 376 0 is_stmt 0 discriminator 1
 952 001e 751C     		adds	r5, r6, #1
 953 0020 03E0     		b	.L72
 954              	.L74:
 955              		.loc 1 376 0
 956 0022 0025     		movs	r5, #0
 957              	.LVL95:
 958              		.loc 1 385 0 is_stmt 1
 959 0024 01E0     		b	.L72
 960              	.LVL96:
 961              	.L73:
 962              		.loc 1 385 0 is_stmt 0 discriminator 2
 963 0026 FFF7FEFF 		bl	_ZN2OS4Task6SwitchEv
 964              	.LVL97:
 965              	.L72:
 966              		.loc 1 385 0 discriminator 1
 967 002a D4F80834 		ldr	r3, [r4, #1032]
 968 002e 9D42     		cmp	r5, r3
 969 0030 F9D0     		beq	.L73
 970              		.loc 1 388 0 is_stmt 1
 971 0032 04F80680 		strb	r8, [r4, r6]
 972              		.loc 1 391 0
 973 0036 C4F80054 		str	r5, [r4, #1024]
 974              		.loc 1 395 0
 975 003a D4F81424 		ldr	r2, [r4, #1044]
 976 003e D368     		ldr	r3, [r2, #12]
 977 0040 43F08003 		orr	r3, r3, #128
 978 0044 D360     		str	r3, [r2, #12]
 979              		.loc 1 403 0
 980 0046 3846     		mov	r0, r7
 981 0048 FFF7FEFF 		bl	_ZN2OS5Mutex7ReleaseEv
 982              	.LVL98:
 983 004c BDE8F081 		pop	{r4, r5, r6, r7, r8, pc}
 984              	.LBE60:
 985              		.cfi_endproc
 986              	.LFE71:
 987              		.size	_ZN4Uart9WriteByteEh, .-_ZN4Uart9WriteByteEh
 988              		.section	.text._ZN4Uart21WriteBytesNonBlockingEPvi,"ax",%progbits
 989              		.align	2
 990              		.global	_ZN4Uart21WriteBytesNonBlockingEPvi
 991              		.thumb
 992              		.thumb_func
 993              		.type	_ZN4Uart21WriteBytesNonBlockingEPvi, %function
 994              	_ZN4Uart21WriteBytesNonBlockingEPvi:
 995              	.LFB72:
 996              		.loc 1 418 0
 997              		.cfi_startproc
 998              		@ args = 0, pretend = 0, frame = 0
 999              		@ frame_needed = 0, uses_anonymous_args = 0
 1000              	.LVL99:
 1001 0000 2DE9F041 		push	{r4, r5, r6, r7, r8, lr}
 1002              		.cfi_def_cfa_offset 24
 1003              		.cfi_offset 4, -24
 1004              		.cfi_offset 5, -20
 1005              		.cfi_offset 6, -16
 1006              		.cfi_offset 7, -12
 1007              		.cfi_offset 8, -8
 1008              		.cfi_offset 14, -4
 1009 0004 0446     		mov	r4, r0
 1010 0006 0F46     		mov	r7, r1
 1011 0008 1646     		mov	r6, r2
 1012              	.LBB61:
 1013              		.loc 1 424 0
 1014 000a 00F21948 		addw	r8, r0, #1049
 1015 000e 4046     		mov	r0, r8
 1016              	.LVL100:
 1017 0010 FFF7FEFF 		bl	_ZN2OS5Mutex8PendLockEv
 1018              	.LVL101:
 1019              	.LBB62:
 1020              		.loc 1 431 0
 1021 0014 0023     		movs	r3, #0
 1022              	.LBE62:
 1023              		.loc 1 428 0
 1024 0016 1D46     		mov	r5, r3
 1025              	.LBB64:
 1026              		.loc 1 431 0
 1027 0018 1CE0     		b	.L77
 1028              	.LVL102:
 1029              	.L81:
 1030              	.LBB63:
 1031              		.loc 1 434 0
 1032 001a D4F80024 		ldr	r2, [r4, #1024]
 1033              	.LVL103:
 1034              		.loc 1 437 0
 1035 001e 40F2FF11 		movw	r1, #511
 1036 0022 8A42     		cmp	r2, r1
 1037 0024 01D0     		beq	.L82
 1038              		.loc 1 437 0 is_stmt 0 discriminator 1
 1039 0026 511C     		adds	r1, r2, #1
 1040 0028 00E0     		b	.L78
 1041              	.L82:
 1042              		.loc 1 437 0
 1043 002a 0021     		movs	r1, #0
 1044              	.L78:
 1045              	.LVL104:
 1046              		.loc 1 444 0 is_stmt 1 discriminator 4
 1047 002c D4F80804 		ldr	r0, [r4, #1032]
 1048 0030 8142     		cmp	r1, r0
 1049 0032 03D1     		bne	.L79
 1050              		.loc 1 449 0
 1051 0034 0B48     		ldr	r0, .L84
 1052 0036 FFF7FEFF 		bl	_ZN2OS8SetErrorEPPc
 1053              	.LVL105:
 1054              		.loc 1 451 0
 1055 003a 0DE0     		b	.L80
 1056              	.LVL106:
 1057              	.L79:
 1058              		.loc 1 455 0 discriminator 2
 1059 003c F85C     		ldrb	r0, [r7, r3]	@ zero_extendqisi2
 1060 003e A054     		strb	r0, [r4, r2]
 1061              		.loc 1 458 0 discriminator 2
 1062 0040 C4F80014 		str	r1, [r4, #1024]
 1063              		.loc 1 461 0 discriminator 2
 1064 0044 0135     		adds	r5, r5, #1
 1065              	.LVL107:
 1066              		.loc 1 465 0 discriminator 2
 1067 0046 D4F81414 		ldr	r1, [r4, #1044]
 1068              	.LVL108:
 1069 004a CA68     		ldr	r2, [r1, #12]
 1070              	.LVL109:
 1071 004c 42F08002 		orr	r2, r2, #128
 1072 0050 CA60     		str	r2, [r1, #12]
 1073              	.LVL110:
 1074              	.LBE63:
 1075              		.loc 1 431 0 discriminator 2
 1076 0052 0133     		adds	r3, r3, #1
 1077              	.LVL111:
 1078              	.L77:
 1079              		.loc 1 431 0 is_stmt 0 discriminator 1
 1080 0054 B342     		cmp	r3, r6
 1081 0056 E0DB     		blt	.L81
 1082              	.LVL112:
 1083              	.L80:
 1084              	.LBE64:
 1085              		.loc 1 471 0 is_stmt 1
 1086 0058 4046     		mov	r0, r8
 1087 005a FFF7FEFF 		bl	_ZN2OS5Mutex7ReleaseEv
 1088              	.LVL113:
 1089              	.LBE61:
 1090              		.loc 1 474 0
 1091 005e 2846     		mov	r0, r5
 1092 0060 BDE8F081 		pop	{r4, r5, r6, r7, r8, pc}
 1093              	.LVL114:
 1094              	.L85:
 1095              		.align	2
 1096              	.L84:
 1097 0064 00000000 		.word	.LANCHOR1
 1098              		.cfi_endproc
 1099              	.LFE72:
 1100              		.size	_ZN4Uart21WriteBytesNonBlockingEPvi, .-_ZN4Uart21WriteBytesNonBlockingEPvi
 1101              		.section	.text._ZN4Uart9ReadBytesEPvii,"ax",%progbits
 1102              		.align	2
 1103              		.global	_ZN4Uart9ReadBytesEPvii
 1104              		.thumb
 1105              		.thumb_func
 1106              		.type	_ZN4Uart9ReadBytesEPvii, %function
 1107              	_ZN4Uart9ReadBytesEPvii:
 1108              	.LFB73:
 1109              		.loc 1 484 0
 1110              		.cfi_startproc
 1111              		@ args = 0, pretend = 0, frame = 8
 1112              		@ frame_needed = 0, uses_anonymous_args = 0
 1113              	.LVL115:
 1114 0000 2DE9F04F 		push	{r4, r5, r6, r7, r8, r9, r10, fp, lr}
 1115              		.cfi_def_cfa_offset 36
 1116              		.cfi_offset 4, -36
 1117              		.cfi_offset 5, -32
 1118              		.cfi_offset 6, -28
 1119              		.cfi_offset 7, -24
 1120              		.cfi_offset 8, -20
 1121              		.cfi_offset 9, -16
 1122              		.cfi_offset 10, -12
 1123              		.cfi_offset 11, -8
 1124              		.cfi_offset 14, -4
 1125 0004 83B0     		sub	sp, sp, #12
 1126              		.cfi_def_cfa_offset 48
 1127 0006 0646     		mov	r6, r0
 1128 0008 8A46     		mov	r10, r1
 1129 000a 9346     		mov	fp, r2
 1130 000c 1C46     		mov	r4, r3
 1131              	.LBB65:
 1132              		.loc 1 489 0
 1133 000e 00F21A43 		addw	r3, r0, #1050
 1134              	.LVL116:
 1135 0012 0193     		str	r3, [sp, #4]
 1136 0014 1846     		mov	r0, r3
 1137              	.LVL117:
 1138 0016 FFF7FEFF 		bl	_ZN2OS5Mutex8PendLockEv
 1139              	.LVL118:
 1140              		.loc 1 492 0
 1141 001a FFF7FEFF 		bl	_ZN2OS11SystemTicksEv
 1142              	.LVL119:
 1143              		.loc 1 494 0
 1144 001e BAF1000F 		cmp	r10, #0
 1145 0022 2FD0     		beq	.L94
 1146 0024 0746     		mov	r7, r0
 1147              	.LVL120:
 1148 0026 4FF00008 		mov	r8, #0
 1149 002a C146     		mov	r9, r8
 1150 002c 23E0     		b	.L88
 1151              	.LVL121:
 1152              	.L93:
 1153              	.LBB66:
 1154              	.LBB67:
 1155              		.loc 1 504 0
 1156 002e D6F80C54 		ldr	r5, [r6, #1036]
 1157              	.LVL122:
 1158              		.loc 1 507 0
 1159 0032 0CE0     		b	.L89
 1160              	.L91:
 1161              	.LBB68:
 1162              		.loc 1 512 0
 1163 0034 FFF7FEFF 		bl	_ZN2OS11SystemTicksEv
 1164              	.LVL123:
 1165              		.loc 1 514 0
 1166 0038 3CB1     		cbz	r4, .L90
 1167              		.loc 1 514 0 is_stmt 0 discriminator 1
 1168 003a C01B     		subs	r0, r0, r7
 1169              	.LVL124:
 1170 003c A042     		cmp	r0, r4
 1171 003e 04DB     		blt	.L90
 1172              		.loc 1 516 0 is_stmt 1
 1173 0040 1248     		ldr	r0, .L97
 1174 0042 FFF7FEFF 		bl	_ZN2OS8SetErrorEPPc
 1175              	.LVL125:
 1176              		.loc 1 518 0
 1177 0046 4846     		mov	r0, r9
 1178 0048 1DE0     		b	.L87
 1179              	.L90:
 1180              		.loc 1 521 0
 1181 004a FFF7FEFF 		bl	_ZN2OS4Task6SwitchEv
 1182              	.LVL126:
 1183              	.L89:
 1184              	.LBE68:
 1185              		.loc 1 507 0
 1186 004e D6F80434 		ldr	r3, [r6, #1028]
 1187 0052 9D42     		cmp	r5, r3
 1188 0054 EED0     		beq	.L91
 1189              		.loc 1 526 0
 1190 0056 6B1C     		adds	r3, r5, #1
 1191              	.LVL127:
 1192 0058 3544     		add	r5, r5, r6
 1193 005a 95F80022 		ldrb	r2, [r5, #512]	@ zero_extendqisi2
 1194 005e 0AF80820 		strb	r2, [r10, r8]
 1195              		.loc 1 529 0
 1196 0062 B3F5007F 		cmp	r3, #512
 1197 0066 00D1     		bne	.L92
 1198              		.loc 1 530 0
 1199 0068 0023     		movs	r3, #0
 1200              	.LVL128:
 1201              	.L92:
 1202              		.loc 1 532 0 discriminator 2
 1203 006a 09F10109 		add	r9, r9, #1
 1204              	.LVL129:
 1205              		.loc 1 535 0 discriminator 2
 1206 006e C6F80C34 		str	r3, [r6, #1036]
 1207              	.LBE67:
 1208              		.loc 1 502 0 discriminator 2
 1209 0072 08F10108 		add	r8, r8, #1
 1210              	.LVL130:
 1211              	.L88:
 1212              		.loc 1 502 0 is_stmt 0 discriminator 1
 1213 0076 D845     		cmp	r8, fp
 1214 0078 D9DB     		blt	.L93
 1215              	.LBE66:
 1216              		.loc 1 542 0 is_stmt 1
 1217 007a 0198     		ldr	r0, [sp, #4]
 1218 007c FFF7FEFF 		bl	_ZN2OS5Mutex7ReleaseEv
 1219              	.LVL131:
 1220              		.loc 1 544 0
 1221 0080 4846     		mov	r0, r9
 1222 0082 00E0     		b	.L87
 1223              	.LVL132:
 1224              	.L94:
 1225              		.loc 1 496 0
 1226 0084 0020     		movs	r0, #0
 1227              	.LVL133:
 1228              	.L87:
 1229              	.LBE65:
 1230              		.loc 1 545 0
 1231 0086 03B0     		add	sp, sp, #12
 1232              		.cfi_def_cfa_offset 36
 1233              		@ sp needed
 1234 0088 BDE8F08F 		pop	{r4, r5, r6, r7, r8, r9, r10, fp, pc}
 1235              	.LVL134:
 1236              	.L98:
 1237              		.align	2
 1238              	.L97:
 1239 008c 00000000 		.word	.LANCHOR1
 1240              		.cfi_endproc
 1241              	.LFE73:
 1242              		.size	_ZN4Uart9ReadBytesEPvii, .-_ZN4Uart9ReadBytesEPvii
 1243              		.section	.text._ZN4Uart20ReadBytesNonBlockingEPvi,"ax",%progbits
 1244              		.align	2
 1245              		.global	_ZN4Uart20ReadBytesNonBlockingEPvi
 1246              		.thumb
 1247              		.thumb_func
 1248              		.type	_ZN4Uart20ReadBytesNonBlockingEPvi, %function
 1249              	_ZN4Uart20ReadBytesNonBlockingEPvi:
 1250              	.LFB74:
 1251              		.loc 1 555 0
 1252              		.cfi_startproc
 1253              		@ args = 0, pretend = 0, frame = 0
 1254              		@ frame_needed = 0, uses_anonymous_args = 0
 1255              	.LVL135:
 1256 0000 2DE9F041 		push	{r4, r5, r6, r7, r8, lr}
 1257              		.cfi_def_cfa_offset 24
 1258              		.cfi_offset 4, -24
 1259              		.cfi_offset 5, -20
 1260              		.cfi_offset 6, -16
 1261              		.cfi_offset 7, -12
 1262              		.cfi_offset 8, -8
 1263              		.cfi_offset 14, -4
 1264              	.LBB69:
 1265              		.loc 1 558 0
 1266 0004 29B9     		cbnz	r1, .L100
 1267              		.loc 1 560 0
 1268 0006 1748     		ldr	r0, .L108
 1269              	.LVL136:
 1270 0008 FFF7FEFF 		bl	_ZN2OS8SetErrorEPPc
 1271              	.LVL137:
 1272              		.loc 1 562 0
 1273 000c 0020     		movs	r0, #0
 1274 000e BDE8F081 		pop	{r4, r5, r6, r7, r8, pc}
 1275              	.LVL138:
 1276              	.L100:
 1277 0012 0446     		mov	r4, r0
 1278 0014 1646     		mov	r6, r2
 1279 0016 0F46     		mov	r7, r1
 1280              		.loc 1 567 0
 1281 0018 00F21A48 		addw	r8, r0, #1050
 1282 001c 4046     		mov	r0, r8
 1283              	.LVL139:
 1284 001e FFF7FEFF 		bl	_ZN2OS5Mutex8PendLockEv
 1285              	.LVL140:
 1286              	.LBB70:
 1287              		.loc 1 572 0
 1288 0022 0022     		movs	r2, #0
 1289              	.LBE70:
 1290              		.loc 1 570 0
 1291 0024 1546     		mov	r5, r2
 1292              	.LBB72:
 1293              		.loc 1 572 0
 1294 0026 15E0     		b	.L102
 1295              	.LVL141:
 1296              	.L105:
 1297              	.LBB71:
 1298              		.loc 1 574 0
 1299 0028 D4F80C34 		ldr	r3, [r4, #1036]
 1300              	.LVL142:
 1301              		.loc 1 577 0
 1302 002c D4F80414 		ldr	r1, [r4, #1028]
 1303 0030 8B42     		cmp	r3, r1
 1304 0032 02D1     		bne	.L103
 1305              		.loc 1 580 0
 1306 0034 2846     		mov	r0, r5
 1307 0036 BDE8F081 		pop	{r4, r5, r6, r7, r8, pc}
 1308              	.LVL143:
 1309              	.L103:
 1310              		.loc 1 584 0
 1311 003a 591C     		adds	r1, r3, #1
 1312              	.LVL144:
 1313 003c 2344     		add	r3, r3, r4
 1314 003e 93F80032 		ldrb	r3, [r3, #512]	@ zero_extendqisi2
 1315 0042 BB54     		strb	r3, [r7, r2]
 1316              		.loc 1 587 0
 1317 0044 B1F5007F 		cmp	r1, #512
 1318 0048 00D1     		bne	.L104
 1319              		.loc 1 588 0
 1320 004a 0021     		movs	r1, #0
 1321              	.LVL145:
 1322              	.L104:
 1323              		.loc 1 590 0 discriminator 2
 1324 004c 0135     		adds	r5, r5, #1
 1325              	.LVL146:
 1326              		.loc 1 593 0 discriminator 2
 1327 004e C4F80C14 		str	r1, [r4, #1036]
 1328              	.LBE71:
 1329              		.loc 1 572 0 discriminator 2
 1330 0052 0132     		adds	r2, r2, #1
 1331              	.LVL147:
 1332              	.L102:
 1333              		.loc 1 572 0 is_stmt 0 discriminator 1
 1334 0054 B242     		cmp	r2, r6
 1335 0056 E7DB     		blt	.L105
 1336              	.LBE72:
 1337              		.loc 1 600 0 is_stmt 1
 1338 0058 4046     		mov	r0, r8
 1339 005a FFF7FEFF 		bl	_ZN2OS5Mutex7ReleaseEv
 1340              	.LVL148:
 1341              		.loc 1 602 0
 1342 005e 2846     		mov	r0, r5
 1343              	.LBE69:
 1344              		.loc 1 603 0
 1345 0060 BDE8F081 		pop	{r4, r5, r6, r7, r8, pc}
 1346              	.LVL149:
 1347              	.L109:
 1348              		.align	2
 1349              	.L108:
 1350 0064 00000000 		.word	.LC0
 1351              		.cfi_endproc
 1352              	.LFE74:
 1353              		.size	_ZN4Uart20ReadBytesNonBlockingEPvi, .-_ZN4Uart20ReadBytesNonBlockingEPvi
 1354              		.section	.text._ZN4Uart8ReadByteEi,"ax",%progbits
 1355              		.align	2
 1356              		.global	_ZN4Uart8ReadByteEi
 1357              		.thumb
 1358              		.thumb_func
 1359              		.type	_ZN4Uart8ReadByteEi, %function
 1360              	_ZN4Uart8ReadByteEi:
 1361              	.LFB75:
 1362              		.loc 1 611 0
 1363              		.cfi_startproc
 1364              		@ args = 0, pretend = 0, frame = 0
 1365              		@ frame_needed = 0, uses_anonymous_args = 0
 1366              	.LVL150:
 1367 0000 F8B5     		push	{r3, r4, r5, r6, r7, lr}
 1368              		.cfi_def_cfa_offset 24
 1369              		.cfi_offset 3, -24
 1370              		.cfi_offset 4, -20
 1371              		.cfi_offset 5, -16
 1372              		.cfi_offset 6, -12
 1373              		.cfi_offset 7, -8
 1374              		.cfi_offset 14, -4
 1375 0002 0546     		mov	r5, r0
 1376 0004 0C46     		mov	r4, r1
 1377              	.LBB73:
 1378              		.loc 1 615 0
 1379 0006 00F21A47 		addw	r7, r0, #1050
 1380 000a 3846     		mov	r0, r7
 1381              	.LVL151:
 1382 000c FFF7FEFF 		bl	_ZN2OS5Mutex8PendLockEv
 1383              	.LVL152:
 1384              		.loc 1 618 0
 1385 0010 D5F80C64 		ldr	r6, [r5, #1036]
 1386              	.LVL153:
 1387              		.loc 1 624 0
 1388 0014 0BE0     		b	.L111
 1389              	.L114:
 1390              	.LBB74:
 1391              		.loc 1 625 0
 1392 0016 FFF7FEFF 		bl	_ZN2OS11SystemTicksEv
 1393              	.LVL154:
 1394              		.loc 1 627 0
 1395 001a 34B1     		cbz	r4, .L112
 1396              		.loc 1 627 0 is_stmt 0 discriminator 1
 1397 001c A042     		cmp	r0, r4
 1398 001e 04DB     		blt	.L112
 1399              		.loc 1 629 0 is_stmt 1
 1400 0020 0D48     		ldr	r0, .L118
 1401              	.LVL155:
 1402 0022 FFF7FEFF 		bl	_ZN2OS8SetErrorEPPc
 1403              	.LVL156:
 1404              		.loc 1 631 0
 1405 0026 0020     		movs	r0, #0
 1406 0028 F8BD     		pop	{r3, r4, r5, r6, r7, pc}
 1407              	.LVL157:
 1408              	.L112:
 1409              		.loc 1 634 0
 1410 002a FFF7FEFF 		bl	_ZN2OS4Task6SwitchEv
 1411              	.LVL158:
 1412              	.L111:
 1413              	.LBE74:
 1414              		.loc 1 624 0
 1415 002e D5F80434 		ldr	r3, [r5, #1028]
 1416 0032 9E42     		cmp	r6, r3
 1417 0034 EFD0     		beq	.L114
 1418              		.loc 1 638 0
 1419 0036 731C     		adds	r3, r6, #1
 1420              	.LVL159:
 1421 0038 2E44     		add	r6, r6, r5
 1422 003a 96F80002 		ldrb	r0, [r6, #512]	@ zero_extendqisi2
 1423 003e C4B2     		uxtb	r4, r0
 1424              	.LVL160:
 1425              		.loc 1 641 0
 1426 0040 B3F5007F 		cmp	r3, #512
 1427 0044 00D1     		bne	.L115
 1428              		.loc 1 642 0
 1429 0046 0023     		movs	r3, #0
 1430              	.LVL161:
 1431              	.L115:
 1432              		.loc 1 645 0
 1433 0048 C5F80C34 		str	r3, [r5, #1036]
 1434              		.loc 1 650 0
 1435 004c 3846     		mov	r0, r7
 1436 004e FFF7FEFF 		bl	_ZN2OS5Mutex7ReleaseEv
 1437              	.LVL162:
 1438              		.loc 1 653 0
 1439 0052 2046     		mov	r0, r4
 1440              	.LBE73:
 1441              		.loc 1 655 0
 1442 0054 F8BD     		pop	{r3, r4, r5, r6, r7, pc}
 1443              	.LVL163:
 1444              	.L119:
 1445 0056 00BF     		.align	2
 1446              	.L118:
 1447 0058 00000000 		.word	.LANCHOR1
 1448              		.cfi_endproc
 1449              	.LFE75:
 1450              		.size	_ZN4Uart8ReadByteEi, .-_ZN4Uart8ReadByteEi
 1451              		.section	.text._ZN4Uart19ReadByteNonBlockingEv,"ax",%progbits
 1452              		.align	2
 1453              		.global	_ZN4Uart19ReadByteNonBlockingEv
 1454              		.thumb
 1455              		.thumb_func
 1456              		.type	_ZN4Uart19ReadByteNonBlockingEv, %function
 1457              	_ZN4Uart19ReadByteNonBlockingEv:
 1458              	.LFB76:
 1459              		.loc 1 660 0
 1460              		.cfi_startproc
 1461              		@ args = 0, pretend = 0, frame = 0
 1462              		@ frame_needed = 0, uses_anonymous_args = 0
 1463              	.LVL164:
 1464 0000 70B5     		push	{r4, r5, r6, lr}
 1465              		.cfi_def_cfa_offset 16
 1466              		.cfi_offset 4, -16
 1467              		.cfi_offset 5, -12
 1468              		.cfi_offset 6, -8
 1469              		.cfi_offset 14, -4
 1470 0002 0446     		mov	r4, r0
 1471              	.LBB75:
 1472              		.loc 1 665 0
 1473 0004 00F21A46 		addw	r6, r0, #1050
 1474 0008 3046     		mov	r0, r6
 1475              	.LVL165:
 1476 000a FFF7FEFF 		bl	_ZN2OS5Mutex8PendLockEv
 1477              	.LVL166:
 1478              		.loc 1 668 0
 1479 000e D4F80C34 		ldr	r3, [r4, #1036]
 1480              	.LVL167:
 1481              		.loc 1 671 0
 1482 0012 D4F80424 		ldr	r2, [r4, #1028]
 1483 0016 9342     		cmp	r3, r2
 1484 0018 0FD0     		beq	.L123
 1485              		.loc 1 676 0
 1486 001a 5A1C     		adds	r2, r3, #1
 1487              	.LVL168:
 1488 001c 2344     		add	r3, r3, r4
 1489 001e 93F80002 		ldrb	r0, [r3, #512]	@ zero_extendqisi2
 1490 0022 C5B2     		uxtb	r5, r0
 1491              	.LVL169:
 1492              		.loc 1 679 0
 1493 0024 B2F5007F 		cmp	r2, #512
 1494 0028 00D1     		bne	.L122
 1495              		.loc 1 680 0
 1496 002a 0022     		movs	r2, #0
 1497              	.LVL170:
 1498              	.L122:
 1499              		.loc 1 683 0
 1500 002c C4F80C24 		str	r2, [r4, #1036]
 1501              		.loc 1 688 0
 1502 0030 3046     		mov	r0, r6
 1503 0032 FFF7FEFF 		bl	_ZN2OS5Mutex7ReleaseEv
 1504              	.LVL171:
 1505              		.loc 1 691 0
 1506 0036 2846     		mov	r0, r5
 1507 0038 70BD     		pop	{r4, r5, r6, pc}
 1508              	.LVL172:
 1509              	.L123:
 1510              		.loc 1 672 0
 1511 003a 0020     		movs	r0, #0
 1512              	.LBE75:
 1513              		.loc 1 692 0
 1514 003c 70BD     		pop	{r4, r5, r6, pc}
 1515              		.cfi_endproc
 1516              	.LFE76:
 1517              		.size	_ZN4Uart19ReadByteNonBlockingEv, .-_ZN4Uart19ReadByteNonBlockingEv
 1518 003e 00BF     		.section	.text.USART1_IRQHandler,"ax",%progbits
 1519              		.align	2
 1520              		.global	USART1_IRQHandler
 1521              		.thumb
 1522              		.thumb_func
 1523              		.type	USART1_IRQHandler, %function
 1524              	USART1_IRQHandler:
 1525              	.LFB78:
 1526              		.loc 1 743 0
 1527              		.cfi_startproc
 1528              		@ args = 0, pretend = 0, frame = 0
 1529              		@ frame_needed = 0, uses_anonymous_args = 0
 1530              		@ link register save eliminated.
 1531 0000 10B4     		push	{r4}
 1532              		.cfi_def_cfa_offset 4
 1533              		.cfi_offset 4, -4
 1534              	.LVL173:
 1535              	.LBB76:
 1536              	.LBB77:
 1537              		.loc 1 698 0
 1538 0002 1F4B     		ldr	r3, .L135
 1539 0004 D3F81434 		ldr	r3, [r3, #1044]
 1540              	.LVL174:
 1541              	.LBB78:
 1542              		.loc 1 702 0
 1543 0008 1A68     		ldr	r2, [r3]
 1544 000a 12F0200F 		tst	r2, #32
 1545 000e 17D0     		beq	.L127
 1546              	.LBB79:
 1547              		.loc 1 705 0
 1548 0010 1B4C     		ldr	r4, .L135
 1549 0012 D4F80424 		ldr	r2, [r4, #1028]
 1550              	.LVL175:
 1551              		.loc 1 706 0
 1552 0016 511C     		adds	r1, r2, #1
 1553              	.LVL176:
 1554 0018 5868     		ldr	r0, [r3, #4]
 1555 001a C0B2     		uxtb	r0, r0
 1556 001c 2244     		add	r2, r2, r4
 1557 001e 82F80002 		strb	r0, [r2, #512]
 1558              		.loc 1 709 0
 1559 0022 B1F5007F 		cmp	r1, #512
 1560 0026 00D1     		bne	.L128
 1561              		.loc 1 710 0
 1562 0028 0021     		movs	r1, #0
 1563              	.LVL177:
 1564              	.L128:
 1565              		.loc 1 713 0
 1566 002a 154A     		ldr	r2, .L135
 1567 002c C2F80414 		str	r1, [r2, #1028]
 1568              		.loc 1 714 0
 1569 0030 D2F80C24 		ldr	r2, [r2, #1036]
 1570 0034 9142     		cmp	r1, r2
 1571 0036 03D1     		bne	.L127
 1572              		.loc 1 715 0
 1573 0038 0121     		movs	r1, #1
 1574              	.LVL178:
 1575 003a 114A     		ldr	r2, .L135
 1576 003c 82F81014 		strb	r1, [r2, #1040]
 1577              	.LVL179:
 1578              	.L127:
 1579              	.LBE79:
 1580              	.LBE78:
 1581              	.LBB80:
 1582              		.loc 1 720 0
 1583 0040 1A68     		ldr	r2, [r3]
 1584 0042 12F0800F 		tst	r2, #128
 1585 0046 17D0     		beq	.L126
 1586              	.LBB81:
 1587              		.loc 1 721 0
 1588 0048 0D49     		ldr	r1, .L135
 1589 004a D1F80824 		ldr	r2, [r1, #1032]
 1590              	.LVL180:
 1591              	.LBB82:
 1592              		.loc 1 724 0
 1593 004e D1F80014 		ldr	r1, [r1, #1024]
 1594 0052 8A42     		cmp	r2, r1
 1595 0054 04D1     		bne	.L130
 1596              		.loc 1 725 0
 1597 0056 DA68     		ldr	r2, [r3, #12]
 1598              	.LVL181:
 1599 0058 22F08002 		bic	r2, r2, #128
 1600 005c DA60     		str	r2, [r3, #12]
 1601              	.LVL182:
 1602 005e 0BE0     		b	.L126
 1603              	.LVL183:
 1604              	.L130:
 1605              	.LBB83:
 1606              		.loc 1 728 0
 1607 0060 511C     		adds	r1, r2, #1
 1608              	.LVL184:
 1609 0062 0748     		ldr	r0, .L135
 1610 0064 825C     		ldrb	r2, [r0, r2]	@ zero_extendqisi2
 1611 0066 D2B2     		uxtb	r2, r2
 1612              	.LVL185:
 1613              		.loc 1 729 0
 1614 0068 5A60     		str	r2, [r3, #4]
 1615              		.loc 1 732 0
 1616 006a B1F5007F 		cmp	r1, #512
 1617 006e 00D1     		bne	.L131
 1618              		.loc 1 733 0
 1619 0070 0021     		movs	r1, #0
 1620              	.LVL186:
 1621              	.L131:
 1622              		.loc 1 736 0
 1623 0072 034B     		ldr	r3, .L135
 1624              	.LVL187:
 1625 0074 C3F80814 		str	r1, [r3, #1032]
 1626              	.LVL188:
 1627              	.L126:
 1628              	.LBE83:
 1629              	.LBE82:
 1630              	.LBE81:
 1631              	.LBE80:
 1632              	.LBE77:
 1633              	.LBE76:
 1634              		.loc 1 745 0
 1635 0078 5DF8044B 		ldr	r4, [sp], #4
 1636              		.cfi_restore 4
 1637              		.cfi_def_cfa_offset 0
 1638 007c 7047     		bx	lr
 1639              	.L136:
 1640 007e 00BF     		.align	2
 1641              	.L135:
 1642 0080 00000000 		.word	.LANCHOR0
 1643              		.cfi_endproc
 1644              	.LFE78:
 1645              		.size	USART1_IRQHandler, .-USART1_IRQHandler
 1646              		.section	.text.USART2_IRQHandler,"ax",%progbits
 1647              		.align	2
 1648              		.global	USART2_IRQHandler
 1649              		.thumb
 1650              		.thumb_func
 1651              		.type	USART2_IRQHandler, %function
 1652              	USART2_IRQHandler:
 1653              	.LFB79:
 1654              		.loc 1 747 0
 1655              		.cfi_startproc
 1656              		@ args = 0, pretend = 0, frame = 0
 1657              		@ frame_needed = 0, uses_anonymous_args = 0
 1658              		@ link register save eliminated.
 1659 0000 10B4     		push	{r4}
 1660              		.cfi_def_cfa_offset 4
 1661              		.cfi_offset 4, -4
 1662              	.LVL189:
 1663              	.LBB84:
 1664              	.LBB85:
 1665              		.loc 1 698 0
 1666 0002 204B     		ldr	r3, .L146
 1667 0004 D3F83038 		ldr	r3, [r3, #2096]
 1668              	.LVL190:
 1669              	.LBB86:
 1670              		.loc 1 702 0
 1671 0008 1A68     		ldr	r2, [r3]
 1672 000a 12F0200F 		tst	r2, #32
 1673 000e 17D0     		beq	.L138
 1674              	.LBB87:
 1675              		.loc 1 705 0
 1676 0010 1C4C     		ldr	r4, .L146
 1677 0012 D4F82028 		ldr	r2, [r4, #2080]
 1678              	.LVL191:
 1679              		.loc 1 706 0
 1680 0016 511C     		adds	r1, r2, #1
 1681              	.LVL192:
 1682 0018 5868     		ldr	r0, [r3, #4]
 1683 001a C0B2     		uxtb	r0, r0
 1684 001c 2244     		add	r2, r2, r4
 1685 001e 82F81C06 		strb	r0, [r2, #1564]
 1686              		.loc 1 709 0
 1687 0022 B1F5007F 		cmp	r1, #512
 1688 0026 00D1     		bne	.L139
 1689              		.loc 1 710 0
 1690 0028 0021     		movs	r1, #0
 1691              	.LVL193:
 1692              	.L139:
 1693              		.loc 1 713 0
 1694 002a 164A     		ldr	r2, .L146
 1695 002c C2F82018 		str	r1, [r2, #2080]
 1696              		.loc 1 714 0
 1697 0030 D2F82828 		ldr	r2, [r2, #2088]
 1698 0034 9142     		cmp	r1, r2
 1699 0036 03D1     		bne	.L138
 1700              		.loc 1 715 0
 1701 0038 0121     		movs	r1, #1
 1702              	.LVL194:
 1703 003a 124A     		ldr	r2, .L146
 1704 003c 82F82C18 		strb	r1, [r2, #2092]
 1705              	.LVL195:
 1706              	.L138:
 1707              	.LBE87:
 1708              	.LBE86:
 1709              	.LBB88:
 1710              		.loc 1 720 0
 1711 0040 1A68     		ldr	r2, [r3]
 1712 0042 12F0800F 		tst	r2, #128
 1713 0046 19D0     		beq	.L137
 1714              	.LBB89:
 1715              		.loc 1 721 0
 1716 0048 0E49     		ldr	r1, .L146
 1717 004a D1F82428 		ldr	r2, [r1, #2084]
 1718              	.LVL196:
 1719              	.LBB90:
 1720              		.loc 1 724 0
 1721 004e D1F81C18 		ldr	r1, [r1, #2076]
 1722 0052 8A42     		cmp	r2, r1
 1723 0054 04D1     		bne	.L141
 1724              		.loc 1 725 0
 1725 0056 DA68     		ldr	r2, [r3, #12]
 1726              	.LVL197:
 1727 0058 22F08002 		bic	r2, r2, #128
 1728 005c DA60     		str	r2, [r3, #12]
 1729              	.LVL198:
 1730 005e 0DE0     		b	.L137
 1731              	.LVL199:
 1732              	.L141:
 1733              	.LBB91:
 1734              		.loc 1 728 0
 1735 0060 511C     		adds	r1, r2, #1
 1736              	.LVL200:
 1737 0062 0848     		ldr	r0, .L146
 1738 0064 0244     		add	r2, r2, r0
 1739 0066 92F81C24 		ldrb	r2, [r2, #1052]	@ zero_extendqisi2
 1740 006a D2B2     		uxtb	r2, r2
 1741              	.LVL201:
 1742              		.loc 1 729 0
 1743 006c 5A60     		str	r2, [r3, #4]
 1744              		.loc 1 732 0
 1745 006e B1F5007F 		cmp	r1, #512
 1746 0072 00D1     		bne	.L142
 1747              		.loc 1 733 0
 1748 0074 0021     		movs	r1, #0
 1749              	.LVL202:
 1750              	.L142:
 1751              		.loc 1 736 0
 1752 0076 034B     		ldr	r3, .L146
 1753              	.LVL203:
 1754 0078 C3F82418 		str	r1, [r3, #2084]
 1755              	.LVL204:
 1756              	.L137:
 1757              	.LBE91:
 1758              	.LBE90:
 1759              	.LBE89:
 1760              	.LBE88:
 1761              	.LBE85:
 1762              	.LBE84:
 1763              		.loc 1 749 0
 1764 007c 5DF8044B 		ldr	r4, [sp], #4
 1765              		.cfi_restore 4
 1766              		.cfi_def_cfa_offset 0
 1767 0080 7047     		bx	lr
 1768              	.L147:
 1769 0082 00BF     		.align	2
 1770              	.L146:
 1771 0084 00000000 		.word	.LANCHOR0
 1772              		.cfi_endproc
 1773              	.LFE79:
 1774              		.size	USART2_IRQHandler, .-USART2_IRQHandler
 1775              		.section	.text.USART3_IRQHandler,"ax",%progbits
 1776              		.align	2
 1777              		.global	USART3_IRQHandler
 1778              		.thumb
 1779              		.thumb_func
 1780              		.type	USART3_IRQHandler, %function
 1781              	USART3_IRQHandler:
 1782              	.LFB80:
 1783              		.loc 1 751 0
 1784              		.cfi_startproc
 1785              		@ args = 0, pretend = 0, frame = 0
 1786              		@ frame_needed = 0, uses_anonymous_args = 0
 1787              		@ link register save eliminated.
 1788 0000 10B4     		push	{r4}
 1789              		.cfi_def_cfa_offset 4
 1790              		.cfi_offset 4, -4
 1791              	.LVL205:
 1792              	.LBB92:
 1793              	.LBB93:
 1794              		.loc 1 698 0
 1795 0002 204B     		ldr	r3, .L157
 1796 0004 D3F84C3C 		ldr	r3, [r3, #3148]
 1797              	.LVL206:
 1798              	.LBB94:
 1799              		.loc 1 702 0
 1800 0008 1A68     		ldr	r2, [r3]
 1801 000a 12F0200F 		tst	r2, #32
 1802 000e 17D0     		beq	.L149
 1803              	.LBB95:
 1804              		.loc 1 705 0
 1805 0010 1C4C     		ldr	r4, .L157
 1806 0012 D4F83C2C 		ldr	r2, [r4, #3132]
 1807              	.LVL207:
 1808              		.loc 1 706 0
 1809 0016 511C     		adds	r1, r2, #1
 1810              	.LVL208:
 1811 0018 5868     		ldr	r0, [r3, #4]
 1812 001a C0B2     		uxtb	r0, r0
 1813 001c 2244     		add	r2, r2, r4
 1814 001e 82F8380A 		strb	r0, [r2, #2616]
 1815              		.loc 1 709 0
 1816 0022 B1F5007F 		cmp	r1, #512
 1817 0026 00D1     		bne	.L150
 1818              		.loc 1 710 0
 1819 0028 0021     		movs	r1, #0
 1820              	.LVL209:
 1821              	.L150:
 1822              		.loc 1 713 0
 1823 002a 164A     		ldr	r2, .L157
 1824 002c C2F83C1C 		str	r1, [r2, #3132]
 1825              		.loc 1 714 0
 1826 0030 D2F8442C 		ldr	r2, [r2, #3140]
 1827 0034 9142     		cmp	r1, r2
 1828 0036 03D1     		bne	.L149
 1829              		.loc 1 715 0
 1830 0038 0121     		movs	r1, #1
 1831              	.LVL210:
 1832 003a 124A     		ldr	r2, .L157
 1833 003c 82F8481C 		strb	r1, [r2, #3144]
 1834              	.LVL211:
 1835              	.L149:
 1836              	.LBE95:
 1837              	.LBE94:
 1838              	.LBB96:
 1839              		.loc 1 720 0
 1840 0040 1A68     		ldr	r2, [r3]
 1841 0042 12F0800F 		tst	r2, #128
 1842 0046 19D0     		beq	.L148
 1843              	.LBB97:
 1844              		.loc 1 721 0
 1845 0048 0E49     		ldr	r1, .L157
 1846 004a D1F8402C 		ldr	r2, [r1, #3136]
 1847              	.LVL212:
 1848              	.LBB98:
 1849              		.loc 1 724 0
 1850 004e D1F8381C 		ldr	r1, [r1, #3128]
 1851 0052 8A42     		cmp	r2, r1
 1852 0054 04D1     		bne	.L152
 1853              		.loc 1 725 0
 1854 0056 DA68     		ldr	r2, [r3, #12]
 1855              	.LVL213:
 1856 0058 22F08002 		bic	r2, r2, #128
 1857 005c DA60     		str	r2, [r3, #12]
 1858              	.LVL214:
 1859 005e 0DE0     		b	.L148
 1860              	.LVL215:
 1861              	.L152:
 1862              	.LBB99:
 1863              		.loc 1 728 0
 1864 0060 511C     		adds	r1, r2, #1
 1865              	.LVL216:
 1866 0062 0848     		ldr	r0, .L157
 1867 0064 0244     		add	r2, r2, r0
 1868 0066 92F83828 		ldrb	r2, [r2, #2104]	@ zero_extendqisi2
 1869 006a D2B2     		uxtb	r2, r2
 1870              	.LVL217:
 1871              		.loc 1 729 0
 1872 006c 5A60     		str	r2, [r3, #4]
 1873              		.loc 1 732 0
 1874 006e B1F5007F 		cmp	r1, #512
 1875 0072 00D1     		bne	.L153
 1876              		.loc 1 733 0
 1877 0074 0021     		movs	r1, #0
 1878              	.LVL218:
 1879              	.L153:
 1880              		.loc 1 736 0
 1881 0076 034B     		ldr	r3, .L157
 1882              	.LVL219:
 1883 0078 C3F8401C 		str	r1, [r3, #3136]
 1884              	.LVL220:
 1885              	.L148:
 1886              	.LBE99:
 1887              	.LBE98:
 1888              	.LBE97:
 1889              	.LBE96:
 1890              	.LBE93:
 1891              	.LBE92:
 1892              		.loc 1 753 0
 1893 007c 5DF8044B 		ldr	r4, [sp], #4
 1894              		.cfi_restore 4
 1895              		.cfi_def_cfa_offset 0
 1896 0080 7047     		bx	lr
 1897              	.L158:
 1898 0082 00BF     		.align	2
 1899              	.L157:
 1900 0084 00000000 		.word	.LANCHOR0
 1901              		.cfi_endproc
 1902              	.LFE80:
 1903              		.size	USART3_IRQHandler, .-USART3_IRQHandler
 1904              		.section	.text.UART4_IRQHandler,"ax",%progbits
 1905              		.align	2
 1906              		.global	UART4_IRQHandler
 1907              		.thumb
 1908              		.thumb_func
 1909              		.type	UART4_IRQHandler, %function
 1910              	UART4_IRQHandler:
 1911              	.LFB81:
 1912              		.loc 1 755 0
 1913              		.cfi_startproc
 1914              		@ args = 0, pretend = 0, frame = 0
 1915              		@ frame_needed = 0, uses_anonymous_args = 0
 1916              		@ link register save eliminated.
 1917 0000 10B4     		push	{r4}
 1918              		.cfi_def_cfa_offset 4
 1919              		.cfi_offset 4, -4
 1920              	.LVL221:
 1921              	.LBB100:
 1922              	.LBB101:
 1923              		.loc 1 698 0
 1924 0002 41F26803 		movw	r3, #4200
 1925 0006 234A     		ldr	r2, .L168
 1926 0008 D358     		ldr	r3, [r2, r3]
 1927              	.LVL222:
 1928              	.LBB102:
 1929              		.loc 1 702 0
 1930 000a 1A68     		ldr	r2, [r3]
 1931 000c 12F0200F 		tst	r2, #32
 1932 0010 1BD0     		beq	.L160
 1933              	.LBB103:
 1934              		.loc 1 705 0
 1935 0012 204C     		ldr	r4, .L168
 1936 0014 41F25802 		movw	r2, #4184
 1937 0018 A258     		ldr	r2, [r4, r2]
 1938              	.LVL223:
 1939              		.loc 1 706 0
 1940 001a 511C     		adds	r1, r2, #1
 1941              	.LVL224:
 1942 001c 5868     		ldr	r0, [r3, #4]
 1943 001e C0B2     		uxtb	r0, r0
 1944 0020 2244     		add	r2, r2, r4
 1945 0022 82F8540E 		strb	r0, [r2, #3668]
 1946              		.loc 1 709 0
 1947 0026 B1F5007F 		cmp	r1, #512
 1948 002a 00D1     		bne	.L161
 1949              		.loc 1 710 0
 1950 002c 0021     		movs	r1, #0
 1951              	.LVL225:
 1952              	.L161:
 1953              		.loc 1 713 0
 1954 002e 194A     		ldr	r2, .L168
 1955 0030 41F25800 		movw	r0, #4184
 1956 0034 1150     		str	r1, [r2, r0]
 1957              		.loc 1 714 0
 1958 0036 02F58352 		add	r2, r2, #4192
 1959 003a 1268     		ldr	r2, [r2]
 1960 003c 9142     		cmp	r1, r2
 1961 003e 04D1     		bne	.L160
 1962              		.loc 1 715 0
 1963 0040 0120     		movs	r0, #1
 1964 0042 41F26402 		movw	r2, #4196
 1965 0046 1349     		ldr	r1, .L168
 1966              	.LVL226:
 1967 0048 8854     		strb	r0, [r1, r2]
 1968              	.LVL227:
 1969              	.L160:
 1970              	.LBE103:
 1971              	.LBE102:
 1972              	.LBB104:
 1973              		.loc 1 720 0
 1974 004a 1A68     		ldr	r2, [r3]
 1975 004c 12F0800F 		tst	r2, #128
 1976 0050 1CD0     		beq	.L159
 1977              	.LBB105:
 1978              		.loc 1 721 0
 1979 0052 1049     		ldr	r1, .L168
 1980 0054 41F25C02 		movw	r2, #4188
 1981 0058 8A58     		ldr	r2, [r1, r2]
 1982              	.LVL228:
 1983              	.LBB106:
 1984              		.loc 1 724 0
 1985 005a 41F25400 		movw	r0, #4180
 1986 005e 0958     		ldr	r1, [r1, r0]
 1987 0060 8A42     		cmp	r2, r1
 1988 0062 04D1     		bne	.L163
 1989              		.loc 1 725 0
 1990 0064 DA68     		ldr	r2, [r3, #12]
 1991              	.LVL229:
 1992 0066 22F08002 		bic	r2, r2, #128
 1993 006a DA60     		str	r2, [r3, #12]
 1994              	.LVL230:
 1995 006c 0EE0     		b	.L159
 1996              	.LVL231:
 1997              	.L163:
 1998              	.LBB107:
 1999              		.loc 1 728 0
 2000 006e 511C     		adds	r1, r2, #1
 2001              	.LVL232:
 2002 0070 0848     		ldr	r0, .L168
 2003 0072 0244     		add	r2, r2, r0
 2004 0074 92F8542C 		ldrb	r2, [r2, #3156]	@ zero_extendqisi2
 2005 0078 D2B2     		uxtb	r2, r2
 2006              	.LVL233:
 2007              		.loc 1 729 0
 2008 007a 5A60     		str	r2, [r3, #4]
 2009              		.loc 1 732 0
 2010 007c B1F5007F 		cmp	r1, #512
 2011 0080 00D1     		bne	.L164
 2012              		.loc 1 733 0
 2013 0082 0021     		movs	r1, #0
 2014              	.LVL234:
 2015              	.L164:
 2016              		.loc 1 736 0
 2017 0084 41F25C03 		movw	r3, #4188
 2018              	.LVL235:
 2019 0088 024A     		ldr	r2, .L168
 2020              	.LVL236:
 2021 008a D150     		str	r1, [r2, r3]
 2022              	.LVL237:
 2023              	.L159:
 2024              	.LBE107:
 2025              	.LBE106:
 2026              	.LBE105:
 2027              	.LBE104:
 2028              	.LBE101:
 2029              	.LBE100:
 2030              		.loc 1 757 0
 2031 008c 5DF8044B 		ldr	r4, [sp], #4
 2032              		.cfi_restore 4
 2033              		.cfi_def_cfa_offset 0
 2034 0090 7047     		bx	lr
 2035              	.L169:
 2036 0092 00BF     		.align	2
 2037              	.L168:
 2038 0094 00000000 		.word	.LANCHOR0
 2039              		.cfi_endproc
 2040              	.LFE81:
 2041              		.size	UART4_IRQHandler, .-UART4_IRQHandler
 2042              		.section	.text.UART5_IRQHandler,"ax",%progbits
 2043              		.align	2
 2044              		.global	UART5_IRQHandler
 2045              		.thumb
 2046              		.thumb_func
 2047              		.type	UART5_IRQHandler, %function
 2048              	UART5_IRQHandler:
 2049              	.LFB82:
 2050              		.loc 1 759 0
 2051              		.cfi_startproc
 2052              		@ args = 0, pretend = 0, frame = 0
 2053              		@ frame_needed = 0, uses_anonymous_args = 0
 2054              		@ link register save eliminated.
 2055 0000 10B4     		push	{r4}
 2056              		.cfi_def_cfa_offset 4
 2057              		.cfi_offset 4, -4
 2058              	.LVL238:
 2059              	.LBB108:
 2060              	.LBB109:
 2061              		.loc 1 698 0
 2062 0002 41F28443 		movw	r3, #5252
 2063 0006 234A     		ldr	r2, .L179
 2064 0008 D358     		ldr	r3, [r2, r3]
 2065              	.LVL239:
 2066              	.LBB110:
 2067              		.loc 1 702 0
 2068 000a 1A68     		ldr	r2, [r3]
 2069 000c 12F0200F 		tst	r2, #32
 2070 0010 1AD0     		beq	.L171
 2071              	.LBB111:
 2072              		.loc 1 705 0
 2073 0012 204C     		ldr	r4, .L179
 2074 0014 41F27442 		movw	r2, #5236
 2075 0018 A258     		ldr	r2, [r4, r2]
 2076              	.LVL240:
 2077              		.loc 1 706 0
 2078 001a 511C     		adds	r1, r2, #1
 2079              	.LVL241:
 2080 001c 5868     		ldr	r0, [r3, #4]
 2081 001e C0B2     		uxtb	r0, r0
 2082 0020 2244     		add	r2, r2, r4
 2083 0022 41F27024 		movw	r4, #4720
 2084 0026 1055     		strb	r0, [r2, r4]
 2085              		.loc 1 709 0
 2086 0028 B1F5007F 		cmp	r1, #512
 2087 002c 00D1     		bne	.L172
 2088              		.loc 1 710 0
 2089 002e 0021     		movs	r1, #0
 2090              	.LVL242:
 2091              	.L172:
 2092              		.loc 1 713 0
 2093 0030 184A     		ldr	r2, .L179
 2094 0032 41F27440 		movw	r0, #5236
 2095 0036 1150     		str	r1, [r2, r0]
 2096              		.loc 1 714 0
 2097 0038 41F27C40 		movw	r0, #5244
 2098 003c 1258     		ldr	r2, [r2, r0]
 2099 003e 9142     		cmp	r1, r2
 2100 0040 02D1     		bne	.L171
 2101              		.loc 1 715 0
 2102 0042 0121     		movs	r1, #1
 2103              	.LVL243:
 2104 0044 144A     		ldr	r2, .L179+4
 2105 0046 1170     		strb	r1, [r2]
 2106              	.LVL244:
 2107              	.L171:
 2108              	.LBE111:
 2109              	.LBE110:
 2110              	.LBB112:
 2111              		.loc 1 720 0
 2112 0048 1A68     		ldr	r2, [r3]
 2113 004a 12F0800F 		tst	r2, #128
 2114 004e 1DD0     		beq	.L170
 2115              	.LBB113:
 2116              		.loc 1 721 0
 2117 0050 1049     		ldr	r1, .L179
 2118 0052 41F27842 		movw	r2, #5240
 2119 0056 8A58     		ldr	r2, [r1, r2]
 2120              	.LVL245:
 2121              	.LBB114:
 2122              		.loc 1 724 0
 2123 0058 41F27040 		movw	r0, #5232
 2124 005c 0958     		ldr	r1, [r1, r0]
 2125 005e 8A42     		cmp	r2, r1
 2126 0060 04D1     		bne	.L174
 2127              		.loc 1 725 0
 2128 0062 DA68     		ldr	r2, [r3, #12]
 2129              	.LVL246:
 2130 0064 22F08002 		bic	r2, r2, #128
 2131 0068 DA60     		str	r2, [r3, #12]
 2132              	.LVL247:
 2133 006a 0FE0     		b	.L170
 2134              	.LVL248:
 2135              	.L174:
 2136              	.LBB115:
 2137              		.loc 1 728 0
 2138 006c 511C     		adds	r1, r2, #1
 2139              	.LVL249:
 2140 006e 0948     		ldr	r0, .L179
 2141 0070 0244     		add	r2, r2, r0
 2142 0072 41F27000 		movw	r0, #4208
 2143 0076 125C     		ldrb	r2, [r2, r0]	@ zero_extendqisi2
 2144 0078 D2B2     		uxtb	r2, r2
 2145              	.LVL250:
 2146              		.loc 1 729 0
 2147 007a 5A60     		str	r2, [r3, #4]
 2148              		.loc 1 732 0
 2149 007c B1F5007F 		cmp	r1, #512
 2150 0080 00D1     		bne	.L175
 2151              		.loc 1 733 0
 2152 0082 0021     		movs	r1, #0
 2153              	.LVL251:
 2154              	.L175:
 2155              		.loc 1 736 0
 2156 0084 41F27843 		movw	r3, #5240
 2157              	.LVL252:
 2158 0088 024A     		ldr	r2, .L179
 2159              	.LVL253:
 2160 008a D150     		str	r1, [r2, r3]
 2161              	.LVL254:
 2162              	.L170:
 2163              	.LBE115:
 2164              	.LBE114:
 2165              	.LBE113:
 2166              	.LBE112:
 2167              	.LBE109:
 2168              	.LBE108:
 2169              		.loc 1 761 0
 2170 008c 5DF8044B 		ldr	r4, [sp], #4
 2171              		.cfi_restore 4
 2172              		.cfi_def_cfa_offset 0
 2173 0090 7047     		bx	lr
 2174              	.L180:
 2175 0092 00BF     		.align	2
 2176              	.L179:
 2177 0094 00000000 		.word	.LANCHOR0
 2178 0098 80140000 		.word	.LANCHOR0+5248
 2179              		.cfi_endproc
 2180              	.LFE82:
 2181              		.size	UART5_IRQHandler, .-UART5_IRQHandler
 2182              		.section	.text._GLOBAL__sub_I__ZN4Uart5uartsE,"ax",%progbits
 2183              		.align	2
 2184              		.thumb
 2185              		.thumb_func
 2186              		.type	_GLOBAL__sub_I__ZN4Uart5uartsE, %function
 2187              	_GLOBAL__sub_I__ZN4Uart5uartsE:
 2188              	.LFB84:
 2189              		.loc 1 761 0
 2190              		.cfi_startproc
 2191              		@ args = 0, pretend = 0, frame = 0
 2192              		@ frame_needed = 0, uses_anonymous_args = 0
 2193 0000 08B5     		push	{r3, lr}
 2194              		.cfi_def_cfa_offset 8
 2195              		.cfi_offset 3, -8
 2196              		.cfi_offset 14, -4
 2197              		.loc 1 761 0
 2198 0002 0120     		movs	r0, #1
 2199 0004 4FF6FF71 		movw	r1, #65535
 2200 0008 FFF7FEFF 		bl	_Z41__static_initialization_and_destruction_0ii
 2201              	.LVL255:
 2202 000c 08BD     		pop	{r3, pc}
 2203              		.cfi_endproc
 2204              	.LFE84:
 2205              		.size	_GLOBAL__sub_I__ZN4Uart5uartsE, .-_GLOBAL__sub_I__ZN4Uart5uartsE
 2206 000e 00BF     		.section	.init_array,"aw",%init_array
 2207              		.align	2
 2208 0000 00000000 		.word	_GLOBAL__sub_I__ZN4Uart5uartsE(target1)
 2209              		.global	_ZN4Uart15inputBufferNullE
 2210              		.global	_ZN4Uart12timeoutErrorE
 2211              		.global	_ZN4Uart5uartsE
 2212              		.section	.rodata._ZN4Uart12timeoutErrorE,"a",%progbits
 2213              		.align	2
 2214              		.set	.LANCHOR1,. + 0
 2215              		.type	_ZN4Uart12timeoutErrorE, %object
 2216              		.size	_ZN4Uart12timeoutErrorE, 4
 2217              	_ZN4Uart12timeoutErrorE:
 2218 0000 28000000 		.word	.LC1
 2219              		.section	.rodata._ZN4Uart15inputBufferNullE,"a",%progbits
 2220              		.align	2
 2221              		.type	_ZN4Uart15inputBufferNullE, %object
 2222              		.size	_ZN4Uart15inputBufferNullE, 4
 2223              	_ZN4Uart15inputBufferNullE:
 2224 0000 00000000 		.word	.LC0
 2225              		.section	.rodata.str1.4,"aMS",%progbits,1
 2226              		.align	2
 2227              	.LC0:
 2228 0000 47697665 		.ascii	"Given input buffer dataBuffer is NULL\000"
 2228      6E20696E 
 2228      70757420 
 2228      62756666 
 2228      65722064 
 2229 0026 0000     		.space	2
 2230              	.LC1:
 2231 0028 55617274 		.ascii	"Uart read timed out\000"
 2231      20726561 
 2231      64207469 
 2231      6D656420 
 2231      6F757400 
 2232              		.section	.bss._ZN4Uart5uartsE,"aw",%nobits
 2233              		.align	2
 2234              		.set	.LANCHOR0,. + 0
 2235              		.type	_ZN4Uart5uartsE, %object
 2236              		.size	_ZN4Uart5uartsE, 2104
 2237              	_ZN4Uart5uartsE:
 2238 0000 00000000 		.space	2104
 2238      00000000 
 2238      00000000 
 2238      00000000 
 2238      00000000 
 2239              		.text
 2240              	.Letext0:
 2241              		.file 2 "c:\\program files (x86)\\gnu tools arm embedded\\4.9 2015q1\\lib\\gcc\\arm-none-eabi\\4.9
 2242              		.file 3 "../system/include/cmsis/stm32f10x.h"
 2243              		.file 4 "../system/include/stm32f1-stdperiph/stm32f10x_gpio.h"
 2244              		.file 5 "../system/include/stm32f1-stdperiph/misc.h"
 2245              		.file 6 "../include/types.h"
 2246              		.file 7 "../include/os/task.h"
 2247              		.file 8 "../include/os/mutex.h"
 2248              		.file 9 "../include/os.h"
 2249              		.file 10 "../include/modules/uart.h"
 2250              		.file 11 "../system/include/stm32f1-stdperiph/stm32f10x_rcc.h"
 2251              		.file 12 "../system/include/cmsis/core_cm3.h"